 holdem

 Timestamp is 3c0b0cf2 (Sun Dec 02 23:26:10 2001)

 Preferred load address is 00400000

 Start         Length     Name                   Class
 0001:00000000 00074e4eH .text                   CODE
 0001:00074e50 000093b9H .text$x                 CODE
 0002:00000000 00002f75H .rdata                  DATA
 0002:00002f78 00000151H .rdata$r                DATA
 0002:000030d0 00007e88H .xdata$x                DATA
 0002:0000af58 00000000H .edata                  DATA
 0003:00000000 00000104H .CRT$XCA                DATA
 0003:00000104 00000104H .CRT$XCL                DATA
 0003:00000208 0000018bH .CRT$XCU                DATA
 0003:00000394 00000104H .CRT$XCZ                DATA
 0003:00000498 00000104H .CRT$XIA                DATA
 0003:0000059c 00000104H .CRT$XIZ                DATA
 0003:000006a0 00008fc9H .data                   DATA
 0003:00009670 00014244H .bss                    DATA
 0004:00000000 0000012cH .idata$2                DATA
 0004:0000012c 00000014H .idata$3                DATA
 0004:00000140 00000e64H .idata$4                DATA
 0004:00000fa4 00000e64H .idata$5                DATA
 0004:00001e08 000013acH .idata$6                DATA
 0005:00000000 00000ce3H .rsrc$01                DATA
 0005:00000cf0 00009e76H .rsrc$02                DATA

  Address         Publics by Value              Rva+Base     Lib:Object

 0001:000053a0       ?ClearEligible@?%C:\Documents and Settings\administrator\Desktop\poker_source\client\tem\community.cpp257720276@@YAXAAV?$vector@HV?$allocator@H@std@@@std@@@Z 004063a0 f   community.obj
 0001:000053e5       ?AddEligiblePlayers@?%C:\Documents and Settings\administrator\Desktop\poker_source\client\tem\community.cpp257720276@@YAIPAVCTableView@@ABUSidePot@@AAU3@I@Z 004063e5 f   community.obj
 0001:00005469       ?MakeTipText@?%C:\Documents and Settings\administrator\Desktop\poker_source\client\tem\community.cpp257720276@@YAXABUSidePot@@HAAVCString@@PAVCTableView@@@Z 00406469 f   community.obj
 0001:000055b4       ??0Community@@QAE@AAUPlayerSlot@@@Z 004065b4 f   community.obj
 0001:000056d9       ?drawImage@Community@@UBEHPAVCDC@@ABVCPoint@@K@Z 004066d9 f   community.obj
 0001:00005a50       ?setDrawChips@Community@@QAEXABVCChips@@@Z 00406a50 f   community.obj
 0001:00005b0a       ?drawChips@Community@@UAEHPAVCDC@@@Z 00406b0a f   community.obj
 0001:00005b86       ?getCardPos@Community@@UBE?AVCPoint@@H@Z 00406b86 f   community.obj
 0001:00005c65       ?getArea@Community@@UBE?AVCRect@@_N@Z 00406c65 f   community.obj
 0001:00005d35       ?getCardHitArea@Community@@UBE?AVCRect@@H@Z 00406d35 f   community.obj
 0001:00005ed7       ?getCardPaintArea@Community@@UBE?AVCRect@@H@Z 00406ed7 f   community.obj
 0001:00006023       ?getTextArea@Community@@UBE?AVCRect@@XZ 00407023 f   community.obj
 0001:00006052       ?computeLabelArea@Community@@QBE?AVCRect@@PAVCDC@@@Z 00407052 f   community.obj
 0001:000063a7       ?getTooltipText@Community@@UBE?AVCString@@ABVCPoint@@@Z 004073a7 f   community.obj
 0001:000065ab       ?resetTooltip@Community@@UBEHABVCPoint@@@Z 004075ab f   community.obj
 0001:0000666f       ?getChips@Community@@UBE?AVCChips@@XZ 0040766f f   community.obj
 0001:000066a3       ?getTotalChips@Community@@QBE?AVCChips@@XZ 004076a3 f   community.obj
 0001:00006742       ?setChips@Community@@UAEXABVCChips@@@Z 00407742 f   community.obj
 0001:000068e4       ?pot_ante@Community@@QAEXPAVPlayer@Base@@HABVCChips@@@Z 004078e4 f   community.obj
 0001:00006a4f       ?pot_call@Community@@QAEXPAVPlayer@Base@@HABVCChips@@@Z 00407a4f f   community.obj
 0001:00006c07       ?pot_raise@Community@@QAEXPAVPlayer@Base@@HABVCChips@@1@Z 00407c07 f   community.obj
 0001:00006d90       ?pot_fold@Community@@QAEXPAVPlayer@Base@@H@Z 00407d90 f   community.obj
 0001:00006e19       ?pot_isComplete@Community@@QBEHXZ 00407e19 f   community.obj
 0001:00006e59       ?instantiate_sidepot@Community@@QAEAAUSidePot@@XZ 00407e59 f   community.obj
 0001:00006eeb       ?add_eligible_player@Community@@QAEXAAUSidePot@@G@Z 00407eeb f   community.obj
 0001:00006f23       ?pot_allin@Community@@QAEXIABVCChips@@@Z 00407f23 f   community.obj
 0001:00006fbb       ?pot_anteallin@Community@@QAEXABVCChips@@@Z 00407fbb f   community.obj
 0001:00007028       ?splitPot@Community@@AAEXPAVCTableView@@IPAVPlayer@Base@@ABVCChips@@@Z 00408028 f   community.obj
 0001:00007356       ?splitPot@Community@@AAEXPAUSidePot@@AAViterator@?$list@USidePot@@V?$allocator@USidePot@@@std@@@std@@PAVPlayer@Base@@HABVCChips@@3@Z 00408356 f   community.obj
 0001:000075c5       ?getPotArea@Community@@QAE?AVCRect@@I@Z 004085c5 f   community.obj
 0001:00007642       ?drawSidePots@Community@@QBEXPAVCDC@@ABVCRect@@@Z 00408642 f   community.obj
 0001:0000789b       ?computeSidepotsSize@Community@@ABEXPAVCDC@@AAVCRect@@@Z 0040889b f   community.obj
 0001:00007a7a       ?isPlayerEligible@Community@@QAEHHH@Z 00408a7a f   community.obj
 0001:00007b0a       ??0SidePot@@QAE@XZ         00408b0a f   community.obj
 0001:00007bfa       ??0SidePot@@QAE@ABVCChips@@@Z 00408bfa f   community.obj
 0001:00007cec       ??0SidePot@@QAE@ABU0@@Z    00408cec f   community.obj
 0001:00007db0       ??4SidePot@@QAEAAU0@ABU0@@Z 00408db0 f   community.obj
 0001:00007e6b       ?addEligible@SidePot@@QAEXH@Z 00408e6b f   community.obj
 0001:00007e9e       ?clearEligible@SidePot@@QAEXXZ 00408e9e f   community.obj
 0001:00007ec9       ?getRealRaise@Community@@QBE?AVCChips@@XZ 00408ec9 f   community.obj
 0001:00007f4a       ?invalidateChips@Community@@UAEXXZ 00408f4a f   community.obj
 0001:00008b60       ?getName@Player@Base@@QBE?AVCString@@XZ 00409b60 f i community.obj
 0001:00008bc0       ?getSize@Player@Base@@UBE?AVCSize@@XZ 00409bc0 f i community.obj
 0001:00008c00       ?setShowAll@Player@Base@@UAEXH@Z 00409c00 f i community.obj
 0001:00008c20       ??_ECommunity@@UAEPAXI@Z   00409c20 f i community.obj
 0001:00008c20       ??_GCommunity@@UAEPAXI@Z   00409c20 f i community.obj
 0001:00008c70       ??1SidePot@@QAE@XZ         00409c70 f i community.obj
 0001:00008ca0       ??1Community@@UAE@XZ       00409ca0 f i community.obj
 0001:00008d20       ?get_chips@SidePot@@QBE?AVCChips@@XZ 00409d20 f i community.obj
 0001:00008dc0       ??YCChips@@QAEAAV0@ABV0@@Z 00409dc0 f i community.obj
 0001:00008e20       ??4CChips@@QAEAAV0@ABV0@@Z 00409e20 f i community.obj
 0001:00008e60       ?mainPot@Community@@ABEAAUSidePot@@XZ 00409e60 f i community.obj
 0001:00008eb0       ??6CStringOutput@@QAEAAV0@PBD@Z 00409eb0 f i community.obj
 0001:00008f00       ??6CStringOutput@@QAEAAV0@D@Z 00409f00 f i community.obj
 0001:00008f50       ??6CStringOutput@@QAEAAV0@ABVCChips@@@Z 00409f50 f i community.obj
 0001:00009060       ?getDollars@CChips@@QBEKXZ 0040a060 f i community.obj
 0001:00009080       ?getCents@CChips@@QBEKXZ   0040a080 f i community.obj
 0001:000090a0       ?str@CStringOutput@@QBEPBDXZ 0040a0a0 f i community.obj
 0001:00009130       ??9@YA_NABVCChips@@0@Z     0040a130 f i community.obj
 0001:00009150       ??O@YA_NABVCChips@@K@Z     0040a150 f i community.obj
 0001:000091a0       ??O@YA_NABVCChips@@0@Z     0040a1a0 f i community.obj
 0001:000091c0       ?numSidePots@Community@@QBEHXZ 0040a1c0 f i community.obj
 0001:00009220       ?Instance@CTableView@@SAPAV1@XZ 0040a220 f i community.obj
 0001:00009230       ??8@YA_NABVCChips@@K@Z     0040a230 f i community.obj
 0001:00009280       ??8@YA_NABVCChips@@0@Z     0040a280 f i community.obj
 0001:000092a0       ?reset@SidePot@@QAEXXZ     0040a2a0 f i community.obj
 0001:00009350       ?clear_chips@SidePot@@QAEXXZ 0040a350 f i community.obj
 0001:000093d0       ?lolimit@CTableView@@QBE?AVCChips@@XZ 0040a3d0 f i community.obj
 0001:00009410       ??ZCChips@@QAEAAV0@ABV0@@Z 0040a410 f i community.obj
 0001:00009470       ??9@YA_NABVCChips@@K@Z     0040a470 f i community.obj
 0001:000094a0       ?isEligible@SidePot@@QBEHH@Z 0040a4a0 f i community.obj
 0001:000094f0       ?add_chips@SidePot@@QAEXHABVCChips@@@Z 0040a4f0 f i community.obj
 0001:00009530       ??P@YA_NABVCChips@@0@Z     0040a530 f i community.obj
 0001:00009550       ?minimum@@YA?AVCChips@@ABV1@0@Z 0040a550 f i community.obj
 0001:000095b0       ??N@YA_NABVCChips@@0@Z     0040a5b0 f i community.obj
 0001:000095d0       ??6CStringOutput@@QAEAAV0@H@Z 0040a5d0 f i community.obj
 0001:00009620       ??6CStringOutput@@QAEAAV0@W4CSO_Const@0@@Z 0040a620 f i community.obj
 0001:00009660       ?clear@CStringOutput@@QAEXXZ 0040a660 f i community.obj
 0001:00009750       ?isInGame@Player@Base@@QBEHXZ 0040a750 f i community.obj
 0001:000097a0       ??_H@YGXPAXIHP6EX0@Z@Z     0040a7a0 f i community.obj
 0001:000097f0       ?hilimit@CTableView@@QBE?AVCChips@@XZ 0040a7f0 f i community.obj
 0001:00009830       ?begin@?$list@UCardEntry@Player@Base@@V?$allocator@UCardEntry@Player@Base@@@std@@@std@@QBE?AVconst_iterator@12@XZ 0040a830 f i community.obj
 0001:00009880       ?end@?$list@UCardEntry@Player@Base@@V?$allocator@UCardEntry@Player@Base@@@std@@@std@@QBE?AVconst_iterator@12@XZ 0040a880 f i community.obj
 0001:000098c0       ?size@?$list@UCardEntry@Player@Base@@V?$allocator@UCardEntry@Player@Base@@@std@@@std@@QBEIXZ 0040a8c0 f i community.obj
 0001:000098e0       ??Cconst_iterator@?$list@UCardEntry@Player@Base@@V?$allocator@UCardEntry@Player@Base@@@std@@@std@@QBEPBUCardEntry@Player@Base@@XZ 0040a8e0 f i community.obj
 0001:00009910       ??Econst_iterator@?$list@UCardEntry@Player@Base@@V?$allocator@UCardEntry@Player@Base@@@std@@@std@@QAEAAV012@XZ 0040a910 f i community.obj
 0001:00009960       ??9const_iterator@?$list@UCardEntry@Player@Base@@V?$allocator@UCardEntry@Player@Base@@@std@@@std@@QBE_NABV012@@Z 0040a960 f i community.obj
 0001:000099b0       ??0?$vector@HV?$allocator@H@std@@@std@@QAE@IABHABV?$allocator@H@1@@Z 0040a9b0 f i community.obj
 0001:00009a50       ??0?$vector@HV?$allocator@H@std@@@std@@QAE@ABV01@@Z 0040aa50 f i community.obj
 0001:00009af0       ??1?$vector@HV?$allocator@H@std@@@std@@QAE@XZ 0040aaf0 f i community.obj
 0001:00009b80       ??4?$vector@HV?$allocator@H@std@@@std@@QAEAAV01@ABV01@@Z 0040ab80 f i community.obj
 0001:00009da0       ??A?$vector@HV?$allocator@H@std@@@std@@QBEABHI@Z 0040ada0 f i community.obj
 0001:00009de0       ??A?$vector@HV?$allocator@H@std@@@std@@QAEAAHI@Z 0040ade0 f i community.obj
 0001:00009e20       ??0?$list@USidePot@@V?$allocator@USidePot@@@std@@@std@@QAE@ABV?$allocator@USidePot@@@1@@Z 0040ae20 f i community.obj
 0001:00009e80       ??1?$list@USidePot@@V?$allocator@USidePot@@@std@@@std@@QAE@XZ 0040ae80 f i community.obj
 0001:00009f20       ?begin@?$list@USidePot@@V?$allocator@USidePot@@@std@@@std@@QAE?AViterator@12@XZ 0040af20 f i community.obj
 0001:00009f70       ?begin@?$list@USidePot@@V?$allocator@USidePot@@@std@@@std@@QBE?AVconst_iterator@12@XZ 0040af70 f i community.obj
 0001:00009fc0       ?end@?$list@USidePot@@V?$allocator@USidePot@@@std@@@std@@QAE?AViterator@12@XZ 0040afc0 f i community.obj
 0001:0000a000       ?end@?$list@USidePot@@V?$allocator@USidePot@@@std@@@std@@QBE?AVconst_iterator@12@XZ 0040b000 f i community.obj
 0001:0000a040       ?rbegin@?$list@USidePot@@V?$allocator@USidePot@@@std@@@std@@QAE?AV?$reverse_bidirectional_iterator@Viterator@?$list@USidePot@@V?$allocator@USidePot@@@std@@@std@@USidePot@@AAU4@PAU4@H@2@XZ 0040b040 f i community.obj
 0001:0000a0a0       ?size@?$list@USidePot@@V?$allocator@USidePot@@@std@@@std@@QBEIXZ 0040b0a0 f i community.obj
 0001:0000a0c0       ?back@?$list@USidePot@@V?$allocator@USidePot@@@std@@@std@@QAEAAUSidePot@@XZ 0040b0c0 f i community.obj
 0001:0000a110       ?back@?$list@USidePot@@V?$allocator@USidePot@@@std@@@std@@QBEABUSidePot@@XZ 0040b110 f i community.obj
 0001:0000a160       ?push_back@?$list@USidePot@@V?$allocator@USidePot@@@std@@@std@@QAEXABUSidePot@@@Z 0040b160 f i community.obj
 0001:0000a1c0       ?insert@?$list@USidePot@@V?$allocator@USidePot@@@std@@@std@@QAE?AViterator@12@V312@ABUSidePot@@@Z 0040b1c0 f i community.obj
 0001:0000a2c0       ?clear@?$list@USidePot@@V?$allocator@USidePot@@@std@@@std@@QAEXXZ 0040b2c0 f i community.obj
 0001:0000a330       ??Dconst_iterator@?$list@USidePot@@V?$allocator@USidePot@@@std@@@std@@QBEABUSidePot@@XZ 0040b330 f i community.obj
 0001:0000a370       ??Cconst_iterator@?$list@USidePot@@V?$allocator@USidePot@@@std@@@std@@QBEPBUSidePot@@XZ 0040b370 f i community.obj
 0001:0000a3a0       ??Econst_iterator@?$list@USidePot@@V?$allocator@USidePot@@@std@@@std@@QAEAAV012@XZ 0040b3a0 f i community.obj
 0001:0000a3f0       ??9const_iterator@?$list@USidePot@@V?$allocator@USidePot@@@std@@@std@@QBE_NABV012@@Z 0040b3f0 f i community.obj
 0001:0000a440       ??0iterator@?$list@USidePot@@V?$allocator@USidePot@@@std@@@std@@QAE@XZ 0040b440 f i community.obj
 0001:0000a470       ??Diterator@?$list@USidePot@@V?$allocator@USidePot@@@std@@@std@@QBEAAUSidePot@@XZ 0040b470 f i community.obj
 0001:0000a4b0       ??Citerator@?$list@USidePot@@V?$allocator@USidePot@@@std@@@std@@QBEPAUSidePot@@XZ 0040b4b0 f i community.obj
 0001:0000a4e0       ??Eiterator@?$list@USidePot@@V?$allocator@USidePot@@@std@@@std@@QAEAAV012@XZ 0040b4e0 f i community.obj
 0001:0000a530       ??Eiterator@?$list@USidePot@@V?$allocator@USidePot@@@std@@@std@@QAE?AV012@H@Z 0040b530 f i community.obj
 0001:0000a590       ??8iterator@?$list@USidePot@@V?$allocator@USidePot@@@std@@@std@@QBE_NABV012@@Z 0040b590 f i community.obj
 0001:0000a5c0       ??9iterator@?$list@USidePot@@V?$allocator@USidePot@@@std@@@std@@QBE_NABV012@@Z 0040b5c0 f i community.obj
 0001:0000a610       ??D?$reverse_bidirectional_iterator@Viterator@?$list@USidePot@@V?$allocator@USidePot@@@std@@@std@@USidePot@@AAU4@PAU4@H@std@@QBEAAUSidePot@@XZ 0040b610 f i community.obj
 0001:0000a660       ?_Next@_Acc@?$list@UCardEntry@Player@Base@@V?$allocator@UCardEntry@Player@Base@@@std@@@std@@SAAAPAU_Node@23@PAU423@@Z 0040b660 f i community.obj
 0001:0000a670       ??0const_iterator@?$list@UCardEntry@Player@Base@@V?$allocator@UCardEntry@Player@Base@@@std@@@std@@QAE@PAU_Node@12@@Z 0040b670 f i community.obj
 0001:0000a6a0       ??Dconst_iterator@?$list@UCardEntry@Player@Base@@V?$allocator@UCardEntry@Player@Base@@@std@@@std@@QBEABUCardEntry@Player@Base@@XZ 0040b6a0 f i community.obj
 0001:0000a6e0       ??8const_iterator@?$list@UCardEntry@Player@Base@@V?$allocator@UCardEntry@Player@Base@@@std@@@std@@QBE_NABV012@@Z 0040b6e0 f i community.obj
 0001:0000a710       ?capacity@?$vector@HV?$allocator@H@std@@@std@@QBEIXZ 0040b710 f i community.obj
 0001:0000a770       ?begin@?$vector@HV?$allocator@H@std@@@std@@QAEPAHXZ 0040b770 f i community.obj
 0001:0000a790       ?begin@?$vector@HV?$allocator@H@std@@@std@@QBEPBHXZ 0040b790 f i community.obj
 0001:0000a7b0       ?end@?$vector@HV?$allocator@H@std@@@std@@QBEPBHXZ 0040b7b0 f i community.obj
 0001:0000a7d0       ?size@?$vector@HV?$allocator@H@std@@@std@@QBEIXZ 0040b7d0 f i community.obj
 0001:0000a830       ?_Destroy@?$vector@HV?$allocator@H@std@@@std@@IAEXPAH0@Z 0040b830 f i community.obj
 0001:0000a880       ?_Ucopy@?$vector@HV?$allocator@H@std@@@std@@IAEPAHPBH0PAH@Z 0040b880 f i community.obj
 0001:0000a8f0       ?_Ufill@?$vector@HV?$allocator@H@std@@@std@@IAEXPAHIABH@Z 0040b8f0 f i community.obj
 0001:0000a950       ?allocate@?$allocator@H@std@@QAEPAHIPBX@Z 0040b950 f i community.obj
 0001:0000a990       ?deallocate@?$allocator@H@std@@QAEXPAXI@Z 0040b990 f i community.obj
 0001:0000a9d0       ?erase@?$list@USidePot@@V?$allocator@USidePot@@@std@@@std@@QAE?AViterator@12@V312@0@Z 0040b9d0 f i community.obj
 0001:0000aa60       ?_Buynode@?$list@USidePot@@V?$allocator@USidePot@@@std@@@std@@IAEPAU_Node@12@PAU312@0@Z 0040ba60 f i community.obj
 0001:0000ab10       ?_Freenode@?$list@USidePot@@V?$allocator@USidePot@@@std@@@std@@IAEXPAU_Node@12@@Z 0040bb10 f i community.obj
 0001:0000ab50       ?_Next@_Acc@?$list@USidePot@@V?$allocator@USidePot@@@std@@@std@@SAAAPAU_Node@23@PAU423@@Z 0040bb50 f i community.obj
 0001:0000ab60       ?_Prev@_Acc@?$list@USidePot@@V?$allocator@USidePot@@@std@@@std@@SAAAPAU_Node@23@PAU423@@Z 0040bb60 f i community.obj
 0001:0000ab70       ?_Value@_Acc@?$list@USidePot@@V?$allocator@USidePot@@@std@@@std@@SAAAUSidePot@@PAU_Node@23@@Z 0040bb70 f i community.obj
 0001:0000ab80       ?construct@?$allocator@USidePot@@@std@@QAEXPAUSidePot@@ABU3@@Z 0040bb80 f i community.obj
 0001:0000abc0       ??0const_iterator@?$list@USidePot@@V?$allocator@USidePot@@@std@@@std@@QAE@XZ 0040bbc0 f i community.obj
 0001:0000abe0       ??0const_iterator@?$list@USidePot@@V?$allocator@USidePot@@@std@@@std@@QAE@PAU_Node@12@@Z 0040bbe0 f i community.obj
 0001:0000ac10       ??Fconst_iterator@?$list@USidePot@@V?$allocator@USidePot@@@std@@@std@@QAEAAV012@XZ 0040bc10 f i community.obj
 0001:0000ac60       ??8const_iterator@?$list@USidePot@@V?$allocator@USidePot@@@std@@@std@@QBE_NABV012@@Z 0040bc60 f i community.obj
 0001:0000ac90       ?_Mynode@const_iterator@?$list@USidePot@@V?$allocator@USidePot@@@std@@@std@@QBEPAU_Node@23@XZ 0040bc90 f i community.obj
 0001:0000acb0       ??0iterator@?$list@USidePot@@V?$allocator@USidePot@@@std@@@std@@QAE@PAU_Node@12@@Z 0040bcb0 f i community.obj
 0001:0000acf0       ??Fiterator@?$list@USidePot@@V?$allocator@USidePot@@@std@@@std@@QAEAAV012@XZ 0040bcf0 f i community.obj
 0001:0000ad40       ??0?$reverse_bidirectional_iterator@Viterator@?$list@USidePot@@V?$allocator@USidePot@@@std@@@std@@USidePot@@AAU4@PAU4@H@std@@QAE@Viterator@?$list@USidePot@@V?$allocator@USidePot@@@std@@@1@@Z 0040bd40 f i community.obj
 0001:0000ad70       ?_Value@_Acc@?$list@UCardEntry@Player@Base@@V?$allocator@UCardEntry@Player@Base@@@std@@@std@@SAAAUCardEntry@Player@Base@@PAU_Node@23@@Z 0040bd70 f i community.obj
 0001:0000ad80       ?construct@?$allocator@H@std@@QAEXPAHABH@Z 0040bd80 f i community.obj
 0001:0000adc0       ?destroy@?$allocator@H@std@@QAEXPAH@Z 0040bdc0 f i community.obj
 0001:0000ae00       ?erase@?$list@USidePot@@V?$allocator@USidePot@@@std@@@std@@QAE?AViterator@12@V312@@Z 0040be00 f i community.obj
 0001:0000af10       ?_Charalloc@?$allocator@USidePot@@@std@@QAEPADI@Z 0040bf10 f i community.obj
 0001:0000af50       ?deallocate@?$allocator@USidePot@@@std@@QAEXPAXI@Z 0040bf50 f i community.obj
 0001:0000af90       ?destroy@?$allocator@USidePot@@@std@@QAEXPAUSidePot@@@Z 0040bf90 f i community.obj
 0001:0000afd0       ?copy@std@@YAPAHPBH0PAH@Z  0040bfd0 f i community.obj
 0001:0000b010       ?_Allocate@std@@YAPAHHPAH@Z 0040c010 f i community.obj
 0001:0000b050       ?_Construct@std@@YAXPAUSidePot@@ABU2@@Z 0040c050 f i community.obj
 0001:0000b100       ??2@YAPAXIPAX@Z            0040c100 f i community.obj
 0001:0000b110       ??3@YAXPAX0@Z              0040c110 f i community.obj
 0001:0000b120       ?_Construct@std@@YAXPAHABH@Z 0040c120 f i community.obj
 0001:0000b190       ?_Destroy@std@@YAXPAH@Z    0040c190 f i community.obj
 0001:0000b1a0       ?_Allocate@std@@YAPADHPAD@Z 0040c1a0 f i community.obj
 0001:0000b1d0       ?_Destroy@std@@YAXPAUSidePot@@@Z 0040c1d0 f i community.obj
 0001:0000b1f0       ??_GSidePot@@QAEPAXI@Z     0040c1f0 f i community.obj
 0001:0000b240       ?LoadDeckImage@@YAHPBD0PAVCBitmap@@11AAH2PAVCString@@@Z 0040c240 f   house.obj
 0001:0000b49f       ??0House@@QAE@AAUPlayerSlot@@@Z 0040c49f f   house.obj
 0001:0000b589       ?TransBlt@@YAHPAVCDC@@HHHHPAVCBitmap@@11@Z 0040c589 f   house.obj
 0001:0000b71a       ?drawImage@House@@UBEHPAVCDC@@ABVCPoint@@K@Z 0040c71a f   house.obj
 0001:0000b903       ?mouseClick@House@@UAEXABVCPoint@@@Z 0040c903 f   house.obj
 0001:0000b917       ?getCardPos@House@@QBE?AVCPoint@@ABV2@H@Z 0040c917 f   house.obj
 0001:0000ba08       ?getCardPos@House@@UBE?AVCPoint@@H@Z 0040ca08 f   house.obj
 0001:0000bb05       ?getSize@House@@UBE?AVCSize@@XZ 0040cb05 f   house.obj
 0001:0000bd90       ??_EHouse@@UAEPAXI@Z       0040cd90 f i house.obj
 0001:0000bd90       ??_GHouse@@UAEPAXI@Z       0040cd90 f i house.obj
 0001:0000bde0       ??1House@@UAE@XZ           0040cde0 f i house.obj
 0001:0000be70       ??0Card@Base@@QAE@ABV01@@Z 0040ce70 f i house.obj
 0001:0000beb0       ??0RemotePlayer@@QAE@AAUPlayerSlot@@PBDABVCChips@@@Z 0040ceb0 f   remoteplayer.obj
 0001:0000bf39       ?drawImage@RemotePlayer@@UBEHPAVCDC@@ABVCPoint@@K@Z 0040cf39 f   remoteplayer.obj
 0001:0000bf8c       ?mouseClick@RemotePlayer@@UAEXABVCPoint@@@Z 0040cf8c f   remoteplayer.obj
 0001:0000bfa0       ?setShowAll@RemotePlayer@@UAEXH@Z 0040cfa0 f   remoteplayer.obj
 0001:0000c030       ??_ERemotePlayer@@UAEPAXI@Z 0040d030 f i remoteplayer.obj
 0001:0000c030       ??_GRemotePlayer@@UAEPAXI@Z 0040d030 f i remoteplayer.obj
 0001:0000c080       ??1RemotePlayer@@UAE@XZ    0040d080 f i remoteplayer.obj
 0001:0000c0b0       ?TimerProc@?%C:\Documents and Settings\administrator\Desktop\poker_source\client\tem\statebet.cpp1793617049@@YGXPAUHWND__@@IIK@Z 0040d0b0 f   statebet.obj
 0001:0000c0de       ??0StateBet@@QAE@XZ        0040d0de f   statebet.obj
 0001:0000c25b       ??1StateBet@@UAE@XZ        0040d25b f   statebet.obj
 0001:0000c365       ?tick@StateBet@@UAEHK@Z    0040d365 f   statebet.obj
 0001:0000c43f       ?draw@StateBet@@UAEHPAVCDC@@@Z 0040d43f f   statebet.obj
 0001:0000c47d       ?onCommand@StateBet@@UAEHIJ@Z 0040d47d f   statebet.obj
 0001:0000c913       ?onKey@StateBet@@UAEHIII@Z 0040d913 f   statebet.obj
 0001:0000c929       ?onCall@StateBet@@IAEHXZ   0040d929 f   statebet.obj
 0001:0000c963       ?onRaise@StateBet@@IAEHXZ  0040d963 f   statebet.obj
 0001:0000c9dc       ?onFold@StateBet@@IAEHXZ   0040d9dc f   statebet.obj
 0001:0000ca35       ?onActionRequest@StateBet@@IAEHPAVPlayer@Base@@J@Z 0040da35 f   statebet.obj
 0001:0000cfb4       ?onActionRequestSpreadLimit@StateBet@@IAEHPAVPlayer@Base@@J@Z 0040dfb4 f   statebet.obj
 0001:0000d427       ?onAction@StateBet@@IAEHPAVPlayer@Base@@J@Z 0040e427 f   statebet.obj
 0001:0000d5eb       ?startPrompt@StateBet@@IAEXHHABVCChips@@0@Z 0040e5eb f   statebet.obj
 0001:0000d930       ?startPrompt@StateBet@@IAEXHHABVCChips@@00@Z 0040e930 f   statebet.obj
 0001:0000db63       ?endPrompt@StateBet@@IAEXXZ 0040eb63 f   statebet.obj
 0001:0000dc67       ?onTimer@StateBet@@QAEHIIK@Z 0040ec67 f   statebet.obj
 0001:0000e620       ?Instance@CActionBar@@SAPAV1@XZ 0040f620 f i statebet.obj
 0001:0000e630       ??_GStateBet@@UAEPAXI@Z    0040f630 f i statebet.obj
 0001:0000e630       ??_EStateBet@@UAEPAXI@Z    0040f630 f i statebet.obj
 0001:0000e680       ??1CardsAnimate@Base@@QAE@XZ 0040f680 f i statebet.obj
 0001:0000e700       ?GetAnimationTime@Global@@SAIXZ 0040f700 f i statebet.obj
 0001:0000e720       ?Instance@Global@@SAAAV1@XZ 0040f720 f i statebet.obj
 0001:0000e730       ?getActionText@Player@Base@@QBE?AVCString@@XZ 0040f730 f i statebet.obj
 0001:0000e790       ?CallInTurn@GameLogic@Base@@SAHXZ 0040f790 f i statebet.obj
 0001:0000e7b0       ?RaiseInTurn@GameLogic@Base@@SAHXZ 0040f7b0 f i statebet.obj
 0001:0000e7d0       ?FoldInTurn@GameLogic@Base@@SAHXZ 0040f7d0 f i statebet.obj
 0001:0000e7f0       ?IsPDU@Network@@YA_NPAUPDUHeader@1@W4PDU_Type@@@Z 0040f7f0 f i statebet.obj
 0001:0000e810       ?IsObserver@Global@@SA_NXZ 0040f810 f i statebet.obj
 0001:0000e830       ?Instance@SoundManager@@SAPAV1@XZ 0040f830 f i statebet.obj
 0001:0000e840       ?Instance@CChatView@@SAPAV1@XZ 0040f840 f i statebet.obj
 0001:0000e850       ??0StateDealPocket@@QAE@HHHHHH@Z 0040f850 f   statedealpocket.obj
 0001:0000e92b       ??1StateDealPocket@@UAE@XZ 0040f92b f   statedealpocket.obj
 0001:0000e958       ?tick@StateDealPocket@@UAEHK@Z 0040f958 f   statedealpocket.obj
 0001:0000eea7       ?draw@StateDealPocket@@UAEHPAVCDC@@@Z 0040fea7 f   statedealpocket.obj
 0001:0000ef1e       ?onCommand@StateDealPocket@@UAEHIJ@Z 0040ff1e f   statedealpocket.obj
 0001:0000f4a0       ??_GStateDealPocket@@UAEPAXI@Z 004104a0 f i statedealpocket.obj
 0001:0000f4a0       ??_EStateDealPocket@@UAEPAXI@Z 004104a0 f i statedealpocket.obj
 0001:0000f4f0       ??1AnimateState@Base@@UAE@XZ 004104f0 f i statedealpocket.obj
 0001:0000f520       ??0Card@Base@@QAE@GH@Z     00410520 f i statedealpocket.obj
 0001:0000f5b0       ??4Card@Base@@QAEAAV01@ABV01@@Z 004105b0 f i statedealpocket.obj
 0001:0000f600       ?getHouse@CTableView@@QBEPAVPlayer@Base@@XZ 00410600 f i statedealpocket.obj
 0001:0000f630       ??0Card@Base@@QAE@W4Suit@1@H@Z 00410630 f i statedealpocket.obj
 0001:0000f670       ?suit@Card@Base@@QAEXW4Suit@2@@Z 00410670 f i statedealpocket.obj
 0001:0000f6a0       ?number@Card@Base@@QAEXH@Z 004106a0 f i statedealpocket.obj
 0001:0000f6d0       ?TimerProc@?%C:\Documents and Settings\administrator\Desktop\poker_source\client\tem\statepromptpostblind.cpp290759316@@YGXPAUHWND__@@IIK@Z 004106d0 f   statepromptpostblind.obj
 0001:0000f6fe       ??0StatePromptPostBlind@@QAE@HABVCChips@@I@Z 004106fe f   statepromptpostblind.obj
 0001:0000f7cb       ??1StatePromptPostBlind@@UAE@XZ 004107cb f   statepromptpostblind.obj
 0001:0000f847       ?start@StatePromptPostBlind@@QAEXXZ 00410847 f   statepromptpostblind.obj
 0001:0000fb3f       ?tick@StatePromptPostBlind@@UAEHK@Z 00410b3f f   statepromptpostblind.obj
 0001:0000fb86       ?draw@StatePromptPostBlind@@UAEHPAVCDC@@@Z 00410b86 f   statepromptpostblind.obj
 0001:0000fbb8       ?onCommand@StatePromptPostBlind@@UAEHIJ@Z 00410bb8 f   statepromptpostblind.obj
 0001:0000ffb8       ?onKey@StatePromptPostBlind@@UAEHIII@Z 00410fb8 f   statepromptpostblind.obj
 0001:0000ffce       ?onTimer@StatePromptPostBlind@@QAEHIIK@Z 00410fce f   statepromptpostblind.obj
 0001:00010550       ?endPrompt@StatePromptPostBlind@@QAEXXZ 00411550 f   statepromptpostblind.obj
 0001:0001066c       ?startPrompt@StatePromptPostBlind@@QAEXHABVCChips@@I@Z 0041166c f   statepromptpostblind.obj
 0001:00010b00       ??_GStatePromptPostBlind@@UAEPAXI@Z 00411b00 f i statepromptpostblind.obj
 0001:00010b00       ??_EStatePromptPostBlind@@UAEPAXI@Z 00411b00 f i statepromptpostblind.obj
 0001:00010b50       ?SitOut@GameLogic@Base@@SAHXZ 00411b50 f i statepromptpostblind.obj
 0001:00010b70       ?AutoPostBlind@GameLogic@Base@@SAHXZ 00411b70 f i statepromptpostblind.obj
 0001:00010b90       ?LeaveTable@GameLogic@Base@@SAHXZ 00411b90 f i statepromptpostblind.obj
 0001:00010bb0       ?LogError@Network@@YAXPBD@Z 00411bb0 f   errorlog.obj
 0001:00010d00       ?ReadPDU@Network@@YAHIPADPAPAUPDUHeader@1@@Z 00411d00 f   network.obj
 0001:00010e5f       ?SendPDU@Network@@YAHIABUPDUHeader@1@@Z 00411e5f f   network.obj
 0001:00010ea1       ?Send@Network@@YAHIPBDI@Z  00411ea1 f   network.obj
 0001:00010ec0       ?SocketReaderProc@Network@@YAIPAX@Z 00411ec0 f   network.obj
 0001:000111b2       ?AllocPDU_Setup_TableLogin@Network@@YAPAUPDUHeader@1@PBD@Z 004121b2 f   network.obj
 0001:00011246       ?AllocPDU_Setup_TableAccept@Network@@YAPAUPDUHeader@1@PBD@Z 00412246 f   network.obj
 0001:000112da       ?AllocPDU_Setup_TableReject@Network@@YAPAUPDUHeader@1@PBD@Z 004122da f   network.obj
 0001:0001136e       ?AllocPDU_Setup_BuyInQuery@Network@@YAPAUPDUHeader@1@PBD@Z 0041236e f   network.obj
 0001:00011402       ?AllocPDU_Setup_BuyInRequest@Network@@YAPAUPDUHeader@1@PBD@Z 00412402 f   network.obj
 0001:00011496       ?AllocPDU_Setup_TableLogout@Network@@YAPAUPDUHeader@1@PBD@Z 00412496 f   network.obj
 0001:0001152a       ?AllocPDU_Setup_TableLogoutConfirm@Network@@YAPAUPDUHeader@1@PBD@Z 0041252a f   network.obj
 0001:000115be       ?AllocPDU_Play_Button@Network@@YAPAUPDUHeader@1@PBD@Z 004125be f   network.obj
 0001:00011652       ?AllocPDU_Play_BlindRequest@Network@@YAPAUPDUHeader@1@PBD@Z 00412652 f   network.obj
 0001:000116e6       ?AllocPDU_Play_PostBlind@Network@@YAPAUPDUHeader@1@PBD@Z 004126e6 f   network.obj
 0001:0001177a       ?AllocPDU_Play_SitInQuery@Network@@YAPAUPDUHeader@1@PBD@Z 0041277a f   network.obj
 0001:0001180e       ?AllocPDU_Play_SitIn@Network@@YAPAUPDUHeader@1@PBD@Z 0041280e f   network.obj
 0001:000118a2       ?AllocPDU_Play_SitOut@Network@@YAPAUPDUHeader@1@PBD@Z 004128a2 f   network.obj
 0001:00011936       ?AllocPDU_Play_ShowCardsQuery@Network@@YAPAUPDUHeader@1@PBD@Z 00412936 f   network.obj
 0001:000119ca       ?AllocPDU_Play_ShowCards@Network@@YAPAUPDUHeader@1@PBD@Z 004129ca f   network.obj
 0001:00011a5e       ?AllocPDU_Play_CommunityCard@Network@@YAPAUPDUHeader@1@PBD@Z 00412a5e f   network.obj
 0001:00011af2       ?AllocPDU_Play_BlindCard@Network@@YAPAUPDUHeader@1@PBD@Z 00412af2 f   network.obj
 0001:00011b86       ?AllocPDU_Play_PocketCard@Network@@YAPAUPDUHeader@1@PBD@Z 00412b86 f   network.obj
 0001:00011c1a       ?AllocPDU_Play_DealCards@Network@@YAPAUPDUHeader@1@PBD@Z 00412c1a f   network.obj
 0001:00011cae       ?AllocPDU_Play_DealCardsFlex@Network@@YAPAUPDUHeader@1@PBD@Z 00412cae f   network.obj
 0001:00011d42       ?AllocPDU_Play_ActionRequest@Network@@YAPAUPDUHeader@1@PBD@Z 00412d42 f   network.obj
 0001:00011dd6       ?AllocPDU_Play_ActionRequestSpreadLimit@Network@@YAPAUPDUHeader@1@PBD@Z 00412dd6 f   network.obj
 0001:00011e6a       ?AllocPDU_Play_Action@Network@@YAPAUPDUHeader@1@PBD@Z 00412e6a f   network.obj
 0001:00011efe       ?AllocPDU_Play_ActionEcho@Network@@YAPAUPDUHeader@1@PBD@Z 00412efe f   network.obj
 0001:00011f92       ?AllocPDU_Play_Showdown@Network@@YAPAUPDUHeader@1@PBD@Z 00412f92 f   network.obj
 0001:00012026       ?AllocPDU_Play_Announce@Network@@YAPAUPDUHeader@1@PBD@Z 00413026 f   network.obj
 0001:000120ba       ?AllocPDU_Tournament_Params@Network@@YAPAUPDUHeader@1@PBD@Z 004130ba f   network.obj
 0001:0001214e       ?AllocPDU_Tournament_PlayerFinished@Network@@YAPAUPDUHeader@1@PBD@Z 0041314e f   network.obj
 0001:000121e2       ?AllocPDU_Tournament_ReseatPlayer@Network@@YAPAUPDUHeader@1@PBD@Z 004131e2 f   network.obj
 0001:00012276       ?AllocPDU_Chat@Network@@YAPAUPDUHeader@1@PBD@Z 00413276 f   network.obj
 0001:0001230a       ?AllocPDU_Server_Notify@Network@@YAPAUPDUHeader@1@PBD@Z 0041330a f   network.obj
 0001:0001239e       ?AllocPDU_UpgradeRequest@Network@@YAPAUPDUHeader@1@PBD@Z 0041339e f   network.obj
 0001:00012432       ?AllocPDU_Ping@Network@@YAPAUPDUHeader@1@PBD@Z 00413432 f   network.obj
 0001:000124c6       ?AllocPDU_GameNumber@Network@@YAPAUPDUHeader@1@PBD@Z 004134c6 f   network.obj
 0001:0001255a       ?AllocPDU_Setup_PlayerInfo@Network@@YAPAUPDUHeader@1@PBD@Z 0041355a f   network.obj
 0001:000125ee       ?AllocPDU_Player@Network@@YAPAUPDUHeader@1@PBD@Z 004135ee f   network.obj
 0001:00012682       ?AllocPDU_Play_AllIn@Network@@YAPAUPDUHeader@1@PBD@Z 00413682 f   network.obj
 0001:00012716       ?AllocPDU_Tournament_AnteAllIn@Network@@YAPAUPDUHeader@1@PBD@Z 00413716 f   network.obj
 0001:000127aa       ?AllocPDU_Error_Client@Network@@YAPAUPDUHeader@1@PBD@Z 004137aa f   network.obj
 0001:0001283e       ?AllocPDU_Error_Server@Network@@YAPAUPDUHeader@1@PBD@Z 0041383e f   network.obj
 0001:000128d2       ?GetName@Network@@YAPBDW4PDU_Type@@@Z 004138d2 f   network.obj
 0001:0001291f       ?AllocPDU@Network@@YAPAUPDUHeader@1@PBD@Z 0041391f f   network.obj
 0001:00013200       ??0PDUHeader@Network@@QAE@PBD@Z 00414200 f i network.obj
 0001:00013280       ?execute@PDUHeader@Network@@UAEXPAVGameState@Base@@@Z 00414280 f i network.obj
 0001:000132a0       ?sizeOf@PDUHeader@Network@@UBEIXZ 004142a0 f i network.obj
 0001:000132c0       ?write@PDUHeader@Network@@UBEPAEPAD@Z 004142c0 f i network.obj
 0001:00013410       ?serialize@PDUHeader@Network@@UBEXAAVWriteBuffer@2@@Z 00414410 f i network.obj
 0001:00013460       ??6WriteBuffer@Network@@QAEAAV01@G@Z 00414460 f i network.obj
 0001:000134d0       ??1PDUHeader@Network@@UAE@XZ 004144d0 f i network.obj
 0001:00013510       ?checkValid@PDUHeader@Network@@UAEXXZ 00414510 f i network.obj
 0001:00013b50       ??_GPDUHeader@Network@@UAEPAXI@Z 00414b50 f i network.obj
 0001:00013b50       ??_EPDUHeader@Network@@UAEPAXI@Z 00414b50 f i network.obj
 0001:00013ba0       ??0PDUNetworkError@Network@@QAE@H@Z 00414ba0 f i network.obj
 0001:00013c10       ??0PDUHeader@Network@@QAE@GGPBD0@Z 00414c10 f i network.obj
 0001:00013c70       ??_GPDUNetworkError@Network@@UAEPAXI@Z 00414c70 f i network.obj
 0001:00013c70       ??_EPDUNetworkError@Network@@UAEPAXI@Z 00414c70 f i network.obj
 0001:00013cc0       ??1PDUNetworkError@Network@@UAE@XZ 00414cc0 f i network.obj
 0001:00013cf0       ??0RAIIRunning@Network@@QAE@PAUThreadInfo@1@@Z 00414cf0 f i network.obj
 0001:00013d30       ??1RAIIRunning@Network@@QAE@XZ 00414d30 f i network.obj
 0001:00013d60       ??0RAIIBuf@Network@@QAE@PAD@Z 00414d60 f i network.obj
 0001:00013d90       ??1RAIIBuf@Network@@QAE@XZ 00414d90 f i network.obj
 0001:00013de0       ??0PDUSetupTableLogin@Network@@QAE@PBD@Z 00414de0 f i network.obj
 0001:00013e80       ?sizeOf@PDUSetupTableLogin@Network@@UBEIXZ 00414e80 f i network.obj
 0001:00013eb0       ?write@PDUSetupTableLogin@Network@@UBEPAEPAD@Z 00414eb0 f i network.obj
 0001:00014090       ?MakeString@Network@@YA?AVCString@@QBD@Z 00415090 f i network.obj
 0001:00014130       ??_EPDUSetupTableLogin@Network@@UAEPAXI@Z 00415130 f i network.obj
 0001:00014130       ??_GPDUSetupTableLogin@Network@@UAEPAXI@Z 00415130 f i network.obj
 0001:00014180       ??1PDUSetupTableLogin@Network@@UAE@XZ 00415180 f i network.obj
 0001:000141b0       ??0PDUSetupTableAccept@Network@@QAE@PBD@Z 004151b0 f i network.obj
 0001:00014350       ?sizeOf@PDUSetupTableAccept@Network@@UBEIXZ 00415350 f i network.obj
 0001:00014380       ?write@PDUSetupTableAccept@Network@@UBEPAEPAD@Z 00415380 f i network.obj
 0001:000144e0       ?checkValid@PDUSetupTableAccept@Network@@UAEXXZ 004154e0 f i network.obj
 0001:00014640       ??_GPDUSetupTableAccept@Network@@UAEPAXI@Z 00415640 f i network.obj
 0001:00014640       ??_EPDUSetupTableAccept@Network@@UAEPAXI@Z 00415640 f i network.obj
 0001:00014690       ??1PDUSetupTableAccept@Network@@UAE@XZ 00415690 f i network.obj
 0001:00014700       ??0PDUSetupTableReject@Network@@QAE@PBD@Z 00415700 f i network.obj
 0001:00014750       ?checkValid@PDUSetupTableReject@Network@@UAEXXZ 00415750 f i network.obj
 0001:000147c0       ??_EPDUSetupTableReject@Network@@UAEPAXI@Z 004157c0 f i network.obj
 0001:000147c0       ??_GPDUSetupTableReject@Network@@UAEPAXI@Z 004157c0 f i network.obj
 0001:00014810       ??1PDUSetupTableReject@Network@@UAE@XZ 00415810 f i network.obj
 0001:00014840       ??0PDUSetupBuyInQuery@Network@@QAE@PBD@Z 00415840 f i network.obj
 0001:00014eb0       ?sizeOf@PDUSetupBuyInQuery@Network@@UBEIXZ 00415eb0 f i network.obj
 0001:00014ee0       ?checkValid@PDUSetupBuyInQuery@Network@@UAEXXZ 00415ee0 f i network.obj
 0001:00015000       ?asDouble@CChips@@QBENXZ   00416000 f i network.obj
 0001:00015090       ??_EPDUSetupBuyInQuery@Network@@UAEPAXI@Z 00416090 f i network.obj
 0001:00015090       ??_GPDUSetupBuyInQuery@Network@@UAEPAXI@Z 00416090 f i network.obj
 0001:000150e0       ??1PDUSetupBuyInQuery@Network@@UAE@XZ 004160e0 f i network.obj
 0001:00015110       ??0PDUSetupBuyInRequest@Network@@QAE@PBD@Z 00416110 f i network.obj
 0001:00015780       ?sizeOf@PDUSetupBuyInRequest@Network@@UBEIXZ 00416780 f i network.obj
 0001:000157b0       ?write@PDUSetupBuyInRequest@Network@@UBEPAEPAD@Z 004167b0 f i network.obj
 0001:00015850       ??_GPDUSetupBuyInRequest@Network@@UAEPAXI@Z 00416850 f i network.obj
 0001:00015850       ??_EPDUSetupBuyInRequest@Network@@UAEPAXI@Z 00416850 f i network.obj
 0001:000158a0       ??1PDUSetupBuyInRequest@Network@@UAE@XZ 004168a0 f i network.obj
 0001:000158d0       ??0PDUSetupTableLogout@Network@@QAE@PBD@Z 004168d0 f i network.obj
 0001:00015920       ?write@PDUSetupTableLogout@Network@@UBEPAEPAD@Z 00416920 f i network.obj
 0001:000159a0       ??_GPDUSetupTableLogout@Network@@UAEPAXI@Z 004169a0 f i network.obj
 0001:000159a0       ??_EPDUSetupTableLogout@Network@@UAEPAXI@Z 004169a0 f i network.obj
 0001:000159f0       ??1PDUSetupTableLogout@Network@@UAE@XZ 004169f0 f i network.obj
 0001:00015a20       ??0PDUSetupTableLogoutConfirm@Network@@QAE@PBD@Z 00416a20 f i network.obj
 0001:00015a70       ?checkValid@PDUSetupTableLogoutConfirm@Network@@UAEXXZ 00416a70 f i network.obj
 0001:00015ae0       ??_GPDUSetupTableLogoutConfirm@Network@@UAEPAXI@Z 00416ae0 f i network.obj
 0001:00015ae0       ??_EPDUSetupTableLogoutConfirm@Network@@UAEPAXI@Z 00416ae0 f i network.obj
 0001:00015b30       ??1PDUSetupTableLogoutConfirm@Network@@UAE@XZ 00416b30 f i network.obj
 0001:00015b60       ??0PDUButton@Network@@QAE@PBD@Z 00416b60 f i network.obj
 0001:00015bf0       ?sizeOf@PDUButton@Network@@UBEIXZ 00416bf0 f i network.obj
 0001:00015c20       ?write@PDUButton@Network@@UBEPAEPAD@Z 00416c20 f i network.obj
 0001:00015c90       ?checkValid@PDUButton@Network@@UAEXXZ 00416c90 f i network.obj
 0001:00016890       ??_GPDUButton@Network@@UAEPAXI@Z 00417890 f i network.obj
 0001:00016890       ??_EPDUButton@Network@@UAEPAXI@Z 00417890 f i network.obj
 0001:000168e0       ??1PDUButton@Network@@UAE@XZ 004178e0 f i network.obj
 0001:00016910       ??0PDUBlindRequest@Network@@QAE@PBD@Z 00417910 f i network.obj
 0001:00016aa0       ?sizeOf@PDUBlindRequest@Network@@UBEIXZ 00417aa0 f i network.obj
 0001:00016ad0       ?checkValid@PDUBlindRequest@Network@@UAEXXZ 00417ad0 f i network.obj
 0001:00017700       ??_EPDUBlindRequest@Network@@UAEPAXI@Z 00418700 f i network.obj
 0001:00017700       ??_GPDUBlindRequest@Network@@UAEPAXI@Z 00418700 f i network.obj
 0001:00017750       ??1PDUBlindRequest@Network@@UAE@XZ 00418750 f i network.obj
 0001:00017780       ??0PDUPostBlind@Network@@QAE@PBD@Z 00418780 f i network.obj
 0001:00017820       ?sizeOf@PDUPostBlind@Network@@UBEIXZ 00418820 f i network.obj
 0001:00017850       ?write@PDUPostBlind@Network@@UBEPAEPAD@Z 00418850 f i network.obj
 0001:000178f0       ??_EPDUPostBlind@Network@@UAEPAXI@Z 004188f0 f i network.obj
 0001:000178f0       ??_GPDUPostBlind@Network@@UAEPAXI@Z 004188f0 f i network.obj
 0001:00017940       ??1PDUPostBlind@Network@@UAE@XZ 00418940 f i network.obj
 0001:00017970       ??0PDUSitInQuery@Network@@QAE@PBD@Z 00418970 f i network.obj
 0001:000179c0       ?checkValid@PDUSitInQuery@Network@@UAEXXZ 004189c0 f i network.obj
 0001:00017a30       ??_GPDUSitInQuery@Network@@UAEPAXI@Z 00418a30 f i network.obj
 0001:00017a30       ??_EPDUSitInQuery@Network@@UAEPAXI@Z 00418a30 f i network.obj
 0001:00017a80       ??1PDUSitInQuery@Network@@UAE@XZ 00418a80 f i network.obj
 0001:00017ab0       ??0PDUSitIn@Network@@QAE@PBD@Z 00418ab0 f i network.obj
 0001:00017b00       ?write@PDUSitIn@Network@@UBEPAEPAD@Z 00418b00 f i network.obj
 0001:00017b80       ??_GPDUSitIn@Network@@UAEPAXI@Z 00418b80 f i network.obj
 0001:00017b80       ??_EPDUSitIn@Network@@UAEPAXI@Z 00418b80 f i network.obj
 0001:00017bd0       ??1PDUSitIn@Network@@UAE@XZ 00418bd0 f i network.obj
 0001:00017c00       ??0PDUSitOut@Network@@QAE@PBD@Z 00418c00 f i network.obj
 0001:00017c50       ?write@PDUSitOut@Network@@UBEPAEPAD@Z 00418c50 f i network.obj
 0001:00017cd0       ??_EPDUSitOut@Network@@UAEPAXI@Z 00418cd0 f i network.obj
 0001:00017cd0       ??_GPDUSitOut@Network@@UAEPAXI@Z 00418cd0 f i network.obj
 0001:00017d20       ??1PDUSitOut@Network@@UAE@XZ 00418d20 f i network.obj
 0001:00017d50       ??0PDUShowCardsQuery@Network@@QAE@PBD@Z 00418d50 f i network.obj
 0001:00017da0       ?checkValid@PDUShowCardsQuery@Network@@UAEXXZ 00418da0 f i network.obj
 0001:00017e10       ??_EPDUShowCardsQuery@Network@@UAEPAXI@Z 00418e10 f i network.obj
 0001:00017e10       ??_GPDUShowCardsQuery@Network@@UAEPAXI@Z 00418e10 f i network.obj
 0001:00017e60       ??1PDUShowCardsQuery@Network@@UAE@XZ 00418e60 f i network.obj
 0001:00017e90       ??0PDUShowCards@Network@@QAE@PBD@Z 00418e90 f i network.obj
 0001:00017f30       ?sizeOf@PDUShowCards@Network@@UBEIXZ 00418f30 f i network.obj
 0001:00017f60       ?write@PDUShowCards@Network@@UBEPAEPAD@Z 00418f60 f i network.obj
 0001:000180b0       ??_GPDUShowCards@Network@@UAEPAXI@Z 004190b0 f i network.obj
 0001:000180b0       ??_EPDUShowCards@Network@@UAEPAXI@Z 004190b0 f i network.obj
 0001:00018100       ??1PDUShowCards@Network@@UAE@XZ 00419100 f i network.obj
 0001:00018130       ??0PDUCommunityCard@Network@@QAE@PBD@Z 00419130 f i network.obj
 0001:00018230       ?sizeOf@PDUCommunityCard@Network@@UBEIXZ 00419230 f i network.obj
 0001:00018260       ?write@PDUCommunityCard@Network@@UBEPAEPAD@Z 00419260 f i network.obj
 0001:00018310       ?checkValid@PDUCommunityCard@Network@@UAEXXZ 00419310 f i network.obj
 0001:000194c0       ??_GPDUCommunityCard@Network@@UAEPAXI@Z 0041a4c0 f i network.obj
 0001:000194c0       ??_EPDUCommunityCard@Network@@UAEPAXI@Z 0041a4c0 f i network.obj
 0001:00019510       ??1PDUCommunityCard@Network@@UAE@XZ 0041a510 f i network.obj
 0001:00019540       ??0PDUBlindCard@Network@@QAE@PBD@Z 0041a540 f i network.obj
 0001:000195d0       ?sizeOf@PDUBlindCard@Network@@UBEIXZ 0041a5d0 f i network.obj
 0001:00019600       ?write@PDUBlindCard@Network@@UBEPAEPAD@Z 0041a600 f i network.obj
 0001:00019670       ?checkValid@PDUBlindCard@Network@@UAEXXZ 0041a670 f i network.obj
 0001:00019ce0       ??_EPDUBlindCard@Network@@UAEPAXI@Z 0041ace0 f i network.obj
 0001:00019ce0       ??_GPDUBlindCard@Network@@UAEPAXI@Z 0041ace0 f i network.obj
 0001:00019d30       ??1PDUBlindCard@Network@@UAE@XZ 0041ad30 f i network.obj
 0001:00019d60       ??0PDUPocketCard@Network@@QAE@PBD@Z 0041ad60 f i network.obj
 0001:00019e50       ?sizeOf@PDUPocketCard@Network@@UBEIXZ 0041ae50 f i network.obj
 0001:00019e80       ?write@PDUPocketCard@Network@@UBEPAEPAD@Z 0041ae80 f i network.obj
 0001:00019f30       ?checkValid@PDUPocketCard@Network@@UAEXXZ 0041af30 f i network.obj
 0001:0001b0e0       ??_GPDUPocketCard@Network@@UAEPAXI@Z 0041c0e0 f i network.obj
 0001:0001b0e0       ??_EPDUPocketCard@Network@@UAEPAXI@Z 0041c0e0 f i network.obj
 0001:0001b130       ??1PDUPocketCard@Network@@UAE@XZ 0041c130 f i network.obj
 0001:0001b160       ??0PDUDealCards@Network@@QAE@PBD@Z 0041c160 f i network.obj
 0001:0001b2c0       ?sizeOf@PDUDealCards@Network@@UBEIXZ 0041c2c0 f i network.obj
 0001:0001b2f0       ?write@PDUDealCards@Network@@UBEPAEPAD@Z 0041c2f0 f i network.obj
 0001:0001b410       ?checkValid@PDUDealCards@Network@@UAEXXZ 0041c410 f i network.obj
 0001:0001d720       ??_GPDUDealCards@Network@@UAEPAXI@Z 0041e720 f i network.obj
 0001:0001d720       ??_EPDUDealCards@Network@@UAEPAXI@Z 0041e720 f i network.obj
 0001:0001d770       ??1PDUDealCards@Network@@UAE@XZ 0041e770 f i network.obj
 0001:0001d7a0       ??0PDUActionRequest@Network@@QAE@PBD@Z 0041e7a0 f i network.obj
 0001:0001d970       ?sizeOf@PDUActionRequest@Network@@UBEIXZ 0041e970 f i network.obj
 0001:0001d9a0       ?checkValid@PDUActionRequest@Network@@UAEXXZ 0041e9a0 f i network.obj
 0001:0001e5e0       ??_GPDUActionRequest@Network@@UAEPAXI@Z 0041f5e0 f i network.obj
 0001:0001e5e0       ??_EPDUActionRequest@Network@@UAEPAXI@Z 0041f5e0 f i network.obj
 0001:0001e630       ??1PDUActionRequest@Network@@UAE@XZ 0041f630 f i network.obj
 0001:0001e660       ??0PDUActionRequestSpreadLimit@Network@@QAE@PBD@Z 0041f660 f i network.obj
 0001:0001e880       ?sizeOf@PDUActionRequestSpreadLimit@Network@@UBEIXZ 0041f880 f i network.obj
 0001:0001e8b0       ?checkValid@PDUActionRequestSpreadLimit@Network@@UAEXXZ 0041f8b0 f i network.obj
 0001:0001f510       ??_GPDUActionRequestSpreadLimit@Network@@UAEPAXI@Z 00420510 f i network.obj
 0001:0001f510       ??_EPDUActionRequestSpreadLimit@Network@@UAEPAXI@Z 00420510 f i network.obj
 0001:0001f560       ??1PDUActionRequestSpreadLimit@Network@@UAE@XZ 00420560 f i network.obj
 0001:0001f590       ??0PDUAction@Network@@QAE@PBD@Z 00420590 f i network.obj
 0001:0001f670       ?sizeOf@PDUAction@Network@@UBEIXZ 00420670 f i network.obj
 0001:0001f6a0       ?write@PDUAction@Network@@UBEPAEPAD@Z 004206a0 f i network.obj
 0001:0001f820       ?checkValid@PDUAction@Network@@UAEXXZ 00420820 f i network.obj
 0001:00020470       ??_GPDUAction@Network@@UAEPAXI@Z 00421470 f i network.obj
 0001:00020470       ??_EPDUAction@Network@@UAEPAXI@Z 00421470 f i network.obj
 0001:000204c0       ??1PDUAction@Network@@UAE@XZ 004214c0 f i network.obj
 0001:000204f0       ??0PDUActionEcho@Network@@QAE@PBD@Z 004214f0 f i network.obj
 0001:00020660       ?sizeOf@PDUActionEcho@Network@@UBEIXZ 00421660 f i network.obj
 0001:00020690       ?checkValid@PDUActionEcho@Network@@UAEXXZ 00421690 f i network.obj
 0001:00021320       ??_EPDUActionEcho@Network@@UAEPAXI@Z 00422320 f i network.obj
 0001:00021320       ??_GPDUActionEcho@Network@@UAEPAXI@Z 00422320 f i network.obj
 0001:00021370       ??1PDUActionEcho@Network@@UAE@XZ 00422370 f i network.obj
 0001:000213a0       ??0PDUAnnounce@Network@@QAE@PBD@Z 004223a0 f i network.obj
 0001:00021510       ?sizeOf@PDUAnnounce@Network@@UBEIXZ 00422510 f i network.obj
 0001:00021540       ?write@PDUAnnounce@Network@@UBEPAEPAD@Z 00422540 f i network.obj
 0001:00021680       ?checkValid@PDUAnnounce@Network@@UAEXXZ 00422680 f i network.obj
 0001:000217e0       ??_EPDUAnnounce@Network@@UAEPAXI@Z 004227e0 f i network.obj
 0001:000217e0       ??_GPDUAnnounce@Network@@UAEPAXI@Z 004227e0 f i network.obj
 0001:00021830       ??1PDUAnnounce@Network@@UAE@XZ 00422830 f i network.obj
 0001:000218a0       ??0PDUTournamentParams@Network@@QAE@PBD@Z 004228a0 f i network.obj
 0001:000219b0       ?sizeOf@PDUTournamentParams@Network@@UBEIXZ 004229b0 f i network.obj
 0001:000219e0       ??_EPDUTournamentParams@Network@@UAEPAXI@Z 004229e0 f i network.obj
 0001:000219e0       ??_GPDUTournamentParams@Network@@UAEPAXI@Z 004229e0 f i network.obj
 0001:00021a30       ??1PDUTournamentParams@Network@@UAE@XZ 00422a30 f i network.obj
 0001:00021a60       ??0PDUTournamentPlayerFinished@Network@@QAE@PBD@Z 00422a60 f i network.obj
 0001:00021bb0       ?sizeOf@PDUTournamentPlayerFinished@Network@@UBEIXZ 00422bb0 f i network.obj
 0001:00021be0       ?checkValid@PDUTournamentPlayerFinished@Network@@UAEXXZ 00422be0 f i network.obj
 0001:00021c50       ??_EPDUTournamentPlayerFinished@Network@@UAEPAXI@Z 00422c50 f i network.obj
 0001:00021c50       ??_GPDUTournamentPlayerFinished@Network@@UAEPAXI@Z 00422c50 f i network.obj
 0001:00021ca0       ??1PDUTournamentPlayerFinished@Network@@UAE@XZ 00422ca0 f i network.obj
 0001:00021ce0       ??0PDUReseat@Network@@QAE@PBD@Z 00422ce0 f i network.obj
 0001:00021dc0       ?sizeOf@PDUReseat@Network@@UBEIXZ 00422dc0 f i network.obj
 0001:00021df0       ??_GPDUReseat@Network@@UAEPAXI@Z 00422df0 f i network.obj
 0001:00021df0       ??_EPDUReseat@Network@@UAEPAXI@Z 00422df0 f i network.obj
 0001:00021e40       ??1PDUReseat@Network@@UAE@XZ 00422e40 f i network.obj
 0001:00021e70       ??0PDUChat@Network@@QAE@PBD@Z 00422e70 f i network.obj
 0001:00021fd0       ?sizeOf@PDUChat@Network@@UBEIXZ 00422fd0 f i network.obj
 0001:00022000       ?write@PDUChat@Network@@UBEPAEPAD@Z 00423000 f i network.obj
 0001:00022260       ?checkValid@PDUChat@Network@@UAEXXZ 00423260 f i network.obj
 0001:00022380       ??_EPDUChat@Network@@UAEPAXI@Z 00423380 f i network.obj
 0001:00022380       ??_GPDUChat@Network@@UAEPAXI@Z 00423380 f i network.obj
 0001:000223d0       ??1PDUChat@Network@@UAE@XZ 004233d0 f i network.obj
 0001:00022440       ??0PDUNotify@Network@@QAE@PBD@Z 00423440 f i network.obj
 0001:000225c0       ?sizeOf@PDUNotify@Network@@UBEIXZ 004235c0 f i network.obj
 0001:000225f0       ?checkValid@PDUNotify@Network@@UAEXXZ 004235f0 f i network.obj
 0001:000227a0       ??_EPDUNotify@Network@@UAEPAXI@Z 004237a0 f i network.obj
 0001:000227a0       ??_GPDUNotify@Network@@UAEPAXI@Z 004237a0 f i network.obj
 0001:000227f0       ??1PDUNotify@Network@@UAE@XZ 004237f0 f i network.obj
 0001:00022860       ??0PDUUpgradeRequest@Network@@QAE@PBD@Z 00423860 f i network.obj
 0001:000229b0       ?sizeOf@PDUUpgradeRequest@Network@@UBEIXZ 004239b0 f i network.obj
 0001:000229e0       ?checkValid@PDUUpgradeRequest@Network@@UAEXXZ 004239e0 f i network.obj
 0001:00022a50       ??_EPDUUpgradeRequest@Network@@UAEPAXI@Z 00423a50 f i network.obj
 0001:00022a50       ??_GPDUUpgradeRequest@Network@@UAEPAXI@Z 00423a50 f i network.obj
 0001:00022aa0       ??1PDUUpgradeRequest@Network@@UAE@XZ 00423aa0 f i network.obj
 0001:00022b10       ??0PDUPing@Network@@QAE@PBD@Z 00423b10 f i network.obj
 0001:00022bb0       ?sizeOf@PDUPing@Network@@UBEIXZ 00423bb0 f i network.obj
 0001:00022be0       ?checkValid@PDUPing@Network@@UAEXXZ 00423be0 f i network.obj
 0001:00022cf0       ??_GPDUPing@Network@@UAEPAXI@Z 00423cf0 f i network.obj
 0001:00022cf0       ??_EPDUPing@Network@@UAEPAXI@Z 00423cf0 f i network.obj
 0001:00022d40       ??1PDUPing@Network@@UAE@XZ 00423d40 f i network.obj
 0001:00022d70       ??0PDUGameNumber@Network@@QAE@PBD@Z 00423d70 f i network.obj
 0001:00022e10       ?sizeOf@PDUGameNumber@Network@@UBEIXZ 00423e10 f i network.obj
 0001:00022e40       ?write@PDUGameNumber@Network@@UBEPAEPAD@Z 00423e40 f i network.obj
 0001:00022eb0       ?checkValid@PDUGameNumber@Network@@UAEXXZ 00423eb0 f i network.obj
 0001:00022fc0       ??_GPDUGameNumber@Network@@UAEPAXI@Z 00423fc0 f i network.obj
 0001:00022fc0       ??_EPDUGameNumber@Network@@UAEPAXI@Z 00423fc0 f i network.obj
 0001:00023010       ??1PDUGameNumber@Network@@UAE@XZ 00424010 f i network.obj
 0001:00023040       ??0PDUPlayer@Network@@QAE@PBD@Z 00424040 f i network.obj
 0001:000231b0       ?sizeOf@PDUPlayer@Network@@UBEIXZ 004241b0 f i network.obj
 0001:000231e0       ?checkValid@PDUPlayer@Network@@UAEXXZ 004241e0 f i network.obj
 0001:00024390       ??_EPDUPlayer@Network@@UAEPAXI@Z 00425390 f i network.obj
 0001:00024390       ??_GPDUPlayer@Network@@UAEPAXI@Z 00425390 f i network.obj
 0001:000243e0       ??1PDUPlayer@Network@@UAE@XZ 004253e0 f i network.obj
 0001:00024410       ??0PDUAllIn@Network@@QAE@PBD@Z 00425410 f i network.obj
 0001:00024550       ?sizeOf@PDUAllIn@Network@@UBEIXZ 00425550 f i network.obj
 0001:00024580       ?checkValid@PDUAllIn@Network@@UAEXXZ 00425580 f i network.obj
 0001:000246b0       ??_GPDUAllIn@Network@@UAEPAXI@Z 004256b0 f i network.obj
 0001:000246b0       ??_EPDUAllIn@Network@@UAEPAXI@Z 004256b0 f i network.obj
 0001:00024700       ??1PDUAllIn@Network@@UAE@XZ 00425700 f i network.obj
 0001:00024730       ??0PDUAnteAllIn@Network@@QAE@PBD@Z 00425730 f i network.obj
 0001:00024820       ?sizeOf@PDUAnteAllIn@Network@@UBEIXZ 00425820 f i network.obj
 0001:00024850       ?checkValid@PDUAnteAllIn@Network@@UAEXXZ 00425850 f i network.obj
 0001:000248c0       ??_EPDUAnteAllIn@Network@@UAEPAXI@Z 004258c0 f i network.obj
 0001:000248c0       ??_GPDUAnteAllIn@Network@@UAEPAXI@Z 004258c0 f i network.obj
 0001:00024910       ??1PDUAnteAllIn@Network@@UAE@XZ 00425910 f i network.obj
 0001:00024940       ??0PDUErrorClient@Network@@QAE@PBD@Z 00425940 f i network.obj
 0001:00024a70       ?write@PDUErrorClient@Network@@UBEPAEPAD@Z 00425a70 f i network.obj
 0001:00024bb0       ?checkValid@PDUErrorClient@Network@@UAEXXZ 00425bb0 f i network.obj
 0001:00024d10       ??_EPDUErrorClient@Network@@UAEPAXI@Z 00425d10 f i network.obj
 0001:00024d10       ??_GPDUErrorClient@Network@@UAEPAXI@Z 00425d10 f i network.obj
 0001:00024d60       ??1PDUErrorClient@Network@@UAE@XZ 00425d60 f i network.obj
 0001:00024dd0       ??0PDUErrorServer@Network@@QAE@PBD@Z 00425dd0 f i network.obj
 0001:00024f00       ?write@PDUErrorServer@Network@@UBEPAEPAD@Z 00425f00 f i network.obj
 0001:00025040       ??_GPDUErrorServer@Network@@UAEPAXI@Z 00426040 f i network.obj
 0001:00025040       ??_EPDUErrorServer@Network@@UAEPAXI@Z 00426040 f i network.obj
 0001:00025090       ??1PDUErrorServer@Network@@UAE@XZ 00426090 f i network.obj
 0001:00025100       ??0WriteBuffer@Network@@QAE@PAD@Z 00426100 f   networkbuffer.obj
 0001:00025128       ??0ReadBuffer@Network@@QAE@PBD@Z 00426128 f   networkbuffer.obj
 0001:00025170       ?execute@PDUAccountBalance@Network@@UAEXPAVGameState@Base@@@Z 00426170 f   pduaccountbalance.obj
 0001:00025190       ?execute@PDUAction@Network@@UAEXPAVGameState@Base@@@Z 00426190 f   pduaction.obj
 0001:000251f0       ?execute@PDUActionEcho@Network@@UAEXPAVGameState@Base@@@Z 004261f0 f   pduactionecho.obj
 0001:00025560       ?currentState@GameLogic@Base@@QBEPAVGameState@2@XZ 00426560 f i pduactionecho.obj
 0001:00025580       ?TableServer@Global@@SAPAV0Network@@XZ 00426580 f i pduactionecho.obj
 0001:000255a0       ?execute@PDUActionRequest@Network@@UAEXPAVGameState@Base@@@Z 004265a0 f   pduactionrequest.obj
 0001:000256f0       ?setSequenceNumber@TableServer@Network@@QAEXG@Z 004266f0 f i pduactionrequest.obj
 0001:00025720       ?execute@PDUActionRequestSpreadLimit@Network@@UAEXPAVGameState@Base@@@Z 00426720 f   pduactionrequestspreadlimit.obj
 0001:00025870       ?execute@PDUAllIn@Network@@UAEXPAVGameState@Base@@@Z 00426870 f   pduallin.obj
 0001:00025ba0       ?getCommunity@CTableView@@QBEPAVPlayer@Base@@XZ 00426ba0 f i pduallin.obj
 0001:00025bd0       ?setState@Player@Base@@QAEXH@Z 00426bd0 f i pduallin.obj
 0001:00025c00       ?execute@PDUAnnounce@Network@@UAEXPAVGameState@Base@@@Z 00426c00 f   pduannounce.obj
 0001:00025f80       ?execute@PDUAnteAllIn@Network@@UAEXPAVGameState@Base@@@Z 00426f80 f   pduanteallin.obj
 0001:00025ff0       ?execute@PDUBlindCard@Network@@UAEXPAVGameState@Base@@@Z 00426ff0 f   pdublindcard.obj
 0001:0002613f       ?execute@PDUBlindCard2@Network@@UAEXPAVGameState@Base@@@Z 0042713f f   pdublindcard.obj
 0001:00026360       ?execute@PDUBlindRequest@Network@@UAEXPAVGameState@Base@@@Z 00427360 f   pdublindrequest.obj
 0001:00026700       ?isSittingOut@Player@Base@@QBEHXZ 00427700 f i pdublindrequest.obj
 0001:00026730       ?execute@PDUButton@Network@@UAEXPAVGameState@Base@@@Z 00427730 f   pdubutton.obj
 0001:00026970       ?getState@Player@Base@@QBEHXZ 00427970 f i pdubutton.obj
 0001:00026990       ?execute@PDUChat@Network@@UAEXPAVGameState@Base@@@Z 00427990 f   pduchat.obj
 0001:00026b20       ?ShowCommunityCardMessage@@YAXPAVPlayer@Base@@@Z 00427b20 f   pducommunitycard.obj
 0001:00026e82       ?execute@PDUCommunityCard@Network@@UAEXPAVGameState@Base@@@Z 00427e82 f   pducommunitycard.obj
 0001:00027180       ??0Card@Base@@QAE@XZ       00428180 f i pducommunitycard.obj
 0001:000271c0       ??0PDUCreditCardEdit@Network@@QAE@ABV?$list@UCreditCardData@Network@@V?$allocator@UCreditCardData@Network@@@std@@@std@@@Z 004281c0 f   pducreditcardedit.obj
 0001:00027243       ?sizeOf@PDUCreditCardEdit@Network@@UBEIXZ 00428243 f   pducreditcardedit.obj
 0001:00027270       ?write@PDUCreditCardEdit@Network@@UBEPAEPAD@Z 00428270 f   pducreditcardedit.obj
 0001:000272c0       ??_GPDUCreditCardEdit@Network@@UAEPAXI@Z 004282c0 f i pducreditcardedit.obj
 0001:000272c0       ??_EPDUCreditCardEdit@Network@@UAEPAXI@Z 004282c0 f i pducreditcardedit.obj
 0001:00027310       ??1PDUCreditCardEdit@Network@@UAE@XZ 00428310 f i pducreditcardedit.obj
 0001:00027390       ??0?$list@UCreditCardData@Network@@V?$allocator@UCreditCardData@Network@@@std@@@std@@QAE@ABV01@@Z 00428390 f i pducreditcardedit.obj
 0001:00027440       ??1?$list@UCreditCardData@Network@@V?$allocator@UCreditCardData@Network@@@std@@@std@@QAE@XZ 00428440 f i pducreditcardedit.obj
 0001:000274e0       ?size@?$list@UCreditCardData@Network@@V?$allocator@UCreditCardData@Network@@@std@@@std@@QBEIXZ 004284e0 f i pducreditcardedit.obj
 0001:00027500       ?begin@?$list@UCreditCardData@Network@@V?$allocator@UCreditCardData@Network@@@std@@@std@@QAE?AViterator@12@XZ 00428500 f i pducreditcardedit.obj
 0001:00027550       ?begin@?$list@UCreditCardData@Network@@V?$allocator@UCreditCardData@Network@@@std@@@std@@QBE?AVconst_iterator@12@XZ 00428550 f i pducreditcardedit.obj
 0001:000275a0       ?end@?$list@UCreditCardData@Network@@V?$allocator@UCreditCardData@Network@@@std@@@std@@QAE?AViterator@12@XZ 004285a0 f i pducreditcardedit.obj
 0001:000275e0       ?end@?$list@UCreditCardData@Network@@V?$allocator@UCreditCardData@Network@@@std@@@std@@QBE?AVconst_iterator@12@XZ 004285e0 f i pducreditcardedit.obj
 0001:00027620       ?insert@?$list@UCreditCardData@Network@@V?$allocator@UCreditCardData@Network@@@std@@@std@@QAEXViterator@12@Vconst_iterator@12@1@Z 00428620 f i pducreditcardedit.obj
 0001:000276a0       ?erase@?$list@UCreditCardData@Network@@V?$allocator@UCreditCardData@Network@@@std@@@std@@QAE?AViterator@12@V312@0@Z 004286a0 f i pducreditcardedit.obj
 0001:00027730       ?_Buynode@?$list@UCreditCardData@Network@@V?$allocator@UCreditCardData@Network@@@std@@@std@@IAEPAU_Node@12@PAU312@0@Z 00428730 f i pducreditcardedit.obj
 0001:000277e0       ?_Freenode@?$list@UCreditCardData@Network@@V?$allocator@UCreditCardData@Network@@@std@@@std@@IAEXPAU_Node@12@@Z 004287e0 f i pducreditcardedit.obj
 0001:00027820       ?insert@?$list@UCreditCardData@Network@@V?$allocator@UCreditCardData@Network@@@std@@@std@@QAE?AViterator@12@V312@ABUCreditCardData@Network@@@Z 00428820 f i pducreditcardedit.obj
 0001:00027920       ?erase@?$list@UCreditCardData@Network@@V?$allocator@UCreditCardData@Network@@@std@@@std@@QAE?AViterator@12@V312@@Z 00428920 f i pducreditcardedit.obj
 0001:00027a30       ?_Next@_Acc@?$list@UCreditCardData@Network@@V?$allocator@UCreditCardData@Network@@@std@@@std@@SAAAPAU_Node@23@PAU423@@Z 00428a30 f i pducreditcardedit.obj
 0001:00027a40       ?_Prev@_Acc@?$list@UCreditCardData@Network@@V?$allocator@UCreditCardData@Network@@@std@@@std@@SAAAPAU_Node@23@PAU423@@Z 00428a40 f i pducreditcardedit.obj
 0001:00027a50       ?_Charalloc@?$allocator@UCreditCardData@Network@@@std@@QAEPADI@Z 00428a50 f i pducreditcardedit.obj
 0001:00027a90       ?deallocate@?$allocator@UCreditCardData@Network@@@std@@QAEXPAXI@Z 00428a90 f i pducreditcardedit.obj
 0001:00027ad0       ??0const_iterator@?$list@UCreditCardData@Network@@V?$allocator@UCreditCardData@Network@@@std@@@std@@QAE@PAU_Node@12@@Z 00428ad0 f i pducreditcardedit.obj
 0001:00027b00       ??Dconst_iterator@?$list@UCreditCardData@Network@@V?$allocator@UCreditCardData@Network@@@std@@@std@@QBEABUCreditCardData@Network@@XZ 00428b00 f i pducreditcardedit.obj
 0001:00027b40       ??Econst_iterator@?$list@UCreditCardData@Network@@V?$allocator@UCreditCardData@Network@@@std@@@std@@QAEAAV012@XZ 00428b40 f i pducreditcardedit.obj
 0001:00027b90       ??9const_iterator@?$list@UCreditCardData@Network@@V?$allocator@UCreditCardData@Network@@@std@@@std@@QBE_NABV012@@Z 00428b90 f i pducreditcardedit.obj
 0001:00027be0       ??0iterator@?$list@UCreditCardData@Network@@V?$allocator@UCreditCardData@Network@@@std@@@std@@QAE@PAU_Node@12@@Z 00428be0 f i pducreditcardedit.obj
 0001:00027c20       ??Eiterator@?$list@UCreditCardData@Network@@V?$allocator@UCreditCardData@Network@@@std@@@std@@QAE?AV012@H@Z 00428c20 f i pducreditcardedit.obj
 0001:00027c80       ??9iterator@?$list@UCreditCardData@Network@@V?$allocator@UCreditCardData@Network@@@std@@@std@@QBE_NABV012@@Z 00428c80 f i pducreditcardedit.obj
 0001:00027cd0       ?_Value@_Acc@?$list@UCreditCardData@Network@@V?$allocator@UCreditCardData@Network@@@std@@@std@@SAAAUCreditCardData@Network@@PAU_Node@23@@Z 00428cd0 f i pducreditcardedit.obj
 0001:00027ce0       ?construct@?$allocator@UCreditCardData@Network@@@std@@QAEXPAUCreditCardData@Network@@ABU34@@Z 00428ce0 f i pducreditcardedit.obj
 0001:00027d20       ?destroy@?$allocator@UCreditCardData@Network@@@std@@QAEXPAUCreditCardData@Network@@@Z 00428d20 f i pducreditcardedit.obj
 0001:00027d60       ??8const_iterator@?$list@UCreditCardData@Network@@V?$allocator@UCreditCardData@Network@@@std@@@std@@QBE_NABV012@@Z 00428d60 f i pducreditcardedit.obj
 0001:00027d90       ?_Mynode@const_iterator@?$list@UCreditCardData@Network@@V?$allocator@UCreditCardData@Network@@@std@@@std@@QBEPAU_Node@23@XZ 00428d90 f i pducreditcardedit.obj
 0001:00027db0       ??Eiterator@?$list@UCreditCardData@Network@@V?$allocator@UCreditCardData@Network@@@std@@@std@@QAEAAV012@XZ 00428db0 f i pducreditcardedit.obj
 0001:00027e00       ??8iterator@?$list@UCreditCardData@Network@@V?$allocator@UCreditCardData@Network@@@std@@@std@@QBE_NABV012@@Z 00428e00 f i pducreditcardedit.obj
 0001:00027e30       ?_Construct@std@@YAXPAUCreditCardData@Network@@ABU23@@Z 00428e30 f i pducreditcardedit.obj
 0001:00027ee0       ?_Destroy@std@@YAXPAUCreditCardData@Network@@@Z 00428ee0 f i pducreditcardedit.obj
 0001:00027f00       ??0CreditCardData@Network@@QAE@ABU01@@Z 00428f00 f i pducreditcardedit.obj
 0001:00027fc0       ??_GCreditCardData@Network@@QAEPAXI@Z 00428fc0 f i pducreditcardedit.obj
 0001:00028010       ??1CreditCardData@Network@@QAE@XZ 00429010 f i pducreditcardedit.obj
 0001:000280b0       ??0PDUCreditCardReply@Network@@QAE@PBD@Z 004290b0 f   pducreditcardresponse.obj
 0001:000280f9       ?execute@PDUCreditCardReply@Network@@UAEXPAVGameState@Base@@@Z 004290f9 f   pducreditcardresponse.obj
 0001:0002810d       ??1PDUCreditCardReply@Network@@UAE@XZ 0042910d f   pducreditcardresponse.obj
 0001:000281a0       ?sizeOf@PDUCreditCardReply@Network@@UBEIXZ 004291a0 f i pducreditcardresponse.obj
 0001:000281d0       ?checkValid@PDUCreditCardReply@Network@@UAEXXZ 004291d0 f i pducreditcardresponse.obj
 0001:000282f0       ??_GPDUCreditCardReply@Network@@UAEPAXI@Z 004292f0 f i pducreditcardresponse.obj
 0001:000282f0       ??_EPDUCreditCardReply@Network@@UAEPAXI@Z 004292f0 f i pducreditcardresponse.obj
 0001:00028340       ?ClearCardsFromTable@Network@@YAXPAVCTableView@@@Z 00429340 f   pdudealcards.obj
 0001:000283c4       ?execute@PDUDealCards@Network@@UAEXPAVGameState@Base@@@Z 004293c4 f   pdudealcards.obj
 0001:00028530       ?dealer@CTableView@@QBEHXZ 00429530 f i pdudealcards.obj
 0001:00028550       ??0PDUDealCardsFlex@Network@@QAE@PBD@Z 00429550 f   pdudealcardsflex.obj
 0001:00028c28       ??1PDUDealCardsFlex@Network@@UAE@XZ 00429c28 f   pdudealcardsflex.obj
 0001:00028c7d       ?execute@PDUDealCardsFlex@Network@@UAEXPAVGameState@Base@@@Z 00429c7d f   pdudealcardsflex.obj
 0001:00029390       ?sizeOf@PDUDealCardsFlex@Network@@UBEIXZ 0042a390 f i pdudealcardsflex.obj
 0001:000293c0       ?checkValid@PDUDealCardsFlex@Network@@UAEXXZ 0042a3c0 f i pdudealcardsflex.obj
 0001:000294e0       ??_GPDUDealCardsFlex@Network@@UAEPAXI@Z 0042a4e0 f i pdudealcardsflex.obj
 0001:000294e0       ??_EPDUDealCardsFlex@Network@@UAEPAXI@Z 0042a4e0 f i pdudealcardsflex.obj
 0001:00029530       ??0PDUEditRules@Network@@QAE@PBD@Z 0042a530 f   pdueditrules.obj
 0001:00029635       ??1PDUEditRules@Network@@UAE@XZ 0042a635 f   pdueditrules.obj
 0001:00029693       ?execute@PDUEditRules@Network@@UAEXPAVGameState@Base@@@Z 0042a693 f   pdueditrules.obj
 0001:00029710       ?sizeOf@PDUEditRules@Network@@UBEIXZ 0042a710 f i pdueditrules.obj
 0001:00029740       ??_GPDUEditRules@Network@@UAEPAXI@Z 0042a740 f i pdueditrules.obj
 0001:00029740       ??_EPDUEditRules@Network@@UAEPAXI@Z 0042a740 f i pdueditrules.obj
 0001:00029790       ?execute@PDUErrorClient@Network@@UAEXPAVGameState@Base@@@Z 0042a790 f   pduerror.obj
 0001:000298a0       ?execute@PDUGameNumber@Network@@UAEXPAVGameState@Base@@@Z 0042a8a0 f   pdugamenumber.obj
 0001:000299b0       ??0PDUHandLogRequest@Network@@QAE@GPBDH@Z 0042a9b0 f   pduhandlogrequest.obj
 0001:00029a99       ?write@PDUHandLogRequest@Network@@UBEPAEPAD@Z 0042aa99 f   pduhandlogrequest.obj
 0001:0002a280       ?sizeOf@PDUHandLogRequest@Network@@UBEIXZ 0042b280 f i pduhandlogrequest.obj
 0001:0002a2b0       ??_GPDUHandLogRequest@Network@@UAEPAXI@Z 0042b2b0 f i pduhandlogrequest.obj
 0001:0002a2b0       ??_EPDUHandLogRequest@Network@@UAEPAXI@Z 0042b2b0 f i pduhandlogrequest.obj
 0001:0002a300       ??1PDUHandLogRequest@Network@@UAE@XZ 0042b300 f i pduhandlogrequest.obj
 0001:0002a370       ?execute@PDULoungeLoginStats@Network@@UAEXPAVGameState@Base@@@Z 0042b370 f   pduloginstats.obj
 0001:0002a390       ?MakeTmpFileName@?%C:\Documents and Settings\administrator\Desktop\poker_source\client\network\pdulounge.cpp296175350@@YA?AVCString@@XZ 0042b390 f   pdulounge.obj
 0001:0002a431       ?LaunchTable@?%C:\Documents and Settings\administrator\Desktop\poker_source\client\network\pdulounge.cpp296175350@@YAHABVCString@@0GGGABVCChips@@1IGPAUHWND__@@PBD@Z 0042b431 f   pdulounge.obj
 0001:0002ae0b       ?execute@PDULoungeAccept@Network@@UAEXPAVGameState@Base@@@Z 0042be0b f   pdulounge.obj
 0001:0002ae1f       ?execute@PDULoungeReject@Network@@UAEXPAVGameState@Base@@@Z 0042be1f f   pdulounge.obj
 0001:0002ae33       ?execute@PDULoungeStatus@Network@@UAEXPAVGameState@Base@@@Z 0042be33 f   pdulounge.obj
 0001:0002ae47       ?execute@PDULoungeTableFull@Network@@UAEXPAVGameState@Base@@@Z 0042be47 f   pdulounge.obj
 0001:0002ae5b       ?execute@PDULoungeSitting@Network@@UAEXPAVGameState@Base@@@Z 0042be5b f   pdulounge.obj
 0001:0002ae6f       ?execute@PDULoungeLogoutWarning@Network@@UAEXPAVGameState@Base@@@Z 0042be6f f   pdulounge.obj
 0001:0002ae83       ?execute@PDULoungeLogoutConfirmed@Network@@UAEXPAVGameState@Base@@@Z 0042be83 f   pdulounge.obj
 0001:0002b160       ??1AFX_EXCEPTION_LINK@@QAE@XZ 0042c160 f i pdulounge.obj
 0001:0002b190       ??6CStringOutput@@QAEAAV0@N@Z 0042c190 f i pdulounge.obj
 0001:0002b1e0       ?execute@PDUNetworkError@Network@@UAEXPAVGameState@Base@@@Z 0042c1e0 f   pdunetworkerror.obj
 0001:0002b3a0       ?execute@PDUNotify@Network@@UAEXPAVGameState@Base@@@Z 0042c3a0 f   pdunotify.obj
 0001:0002b550       ?execute@PDUPing@Network@@UAEXPAVGameState@Base@@@Z 0042c550 f   pduping.obj
 0001:0002b660       ?LoungeServer@Global@@SAPAV0Network@@XZ 0042c660 f i pduping.obj
 0001:0002b680       ?execute@PDUPlayer@Network@@UAEXPAVGameState@Base@@@Z 0042c680 f   pduplayer.obj
 0001:0002bc30       ?isSittingIn@Player@Base@@QBEHXZ 0042cc30 f i pduplayer.obj
 0001:0002bc60       ?GetOrd@Network@@YAPBDG@Z  0042cc60 f   pduplayerfinished.obj
 0001:0002be7d       ?execute@PDUTournamentPlayerFinished@Network@@UAEXPAVGameState@Base@@@Z 0042ce7d f   pduplayerfinished.obj
 0001:0002c040       ??0PDUPlayerInfo@Network@@QAE@PBD@Z 0042d040 f   pduplayerinfo.obj
 0001:0002c703       ??1PDUPlayerInfo@Network@@UAE@XZ 0042d703 f   pduplayerinfo.obj
 0001:0002c758       ?execute@PDUPlayerInfo@Network@@UAEXPAVGameState@Base@@@Z 0042d758 f   pduplayerinfo.obj
 0001:0002ce10       ?sizeOf@PDUPlayerInfo@Network@@UBEIXZ 0042de10 f i pduplayerinfo.obj
 0001:0002ce40       ?checkValid@PDUPlayerInfo@Network@@UAEXXZ 0042de40 f i pduplayerinfo.obj
 0001:0002cf60       ??_EPDUPlayerInfo@Network@@UAEPAXI@Z 0042df60 f i pduplayerinfo.obj
 0001:0002cf60       ??_GPDUPlayerInfo@Network@@UAEPAXI@Z 0042df60 f i pduplayerinfo.obj
 0001:0002cfb0       ?setHomeCity@Player@Base@@QAEXPBD@Z 0042dfb0 f i pduplayerinfo.obj
 0001:0002cff0       ?HideHand@GameLogic@Base@@SAHXZ 0042dff0 f i pduplayerinfo.obj
 0001:0002d010       ?execute@PDUPocketCard@Network@@UAEXPAVGameState@Base@@@Z 0042e010 f   pdupocketcard.obj
 0001:0002d120       ?getLocalPlayer@CTableView@@QBEPAVPlayer@Base@@XZ 0042e120 f i pdupocketcard.obj
 0001:0002d150       ?execute@PDUQueueFull@Network@@UAEXPAVGameState@Base@@@Z 0042e150 f   pduqueuefull.obj
 0001:0002d170       ?execute@PDUQueueUpdate2@Network@@UAEXPAVGameState@Base@@@Z 0042e170 f   pduqueueupdate.obj
 0001:0002d184       ?execute@PDUQueueUpdate@Network@@UAEXPAVGameState@Base@@@Z 0042e184 f   pduqueueupdate.obj
 0001:0002d1b0       ?execute@PDUReseat@Network@@UAEXPAVGameState@Base@@@Z 0042e1b0 f   pdureseat.obj
 0001:0002d370       ?Username@Server@Network@@SA?AVCString@@XZ 0042e370 f i pdureseat.obj
 0001:0002d3c0       ?Password@Server@Network@@SA?AVCString@@XZ 0042e3c0 f i pdureseat.obj
 0001:0002d410       ?setTableNumber@CTableView@@QAEXH@Z 0042e410 f i pdureseat.obj
 0001:0002d440       ?execute@PDUSetupBuyInQuery@Network@@UAEXPAVGameState@Base@@@Z 0042e440 f   pdusetup.obj
 0001:0002d4f8       ?execute@PDUSetupTableAccept@Network@@UAEXPAVGameState@Base@@@Z 0042e4f8 f   pdusetup.obj
 0001:0002d640       ?execute@PDUSetupTableReject@Network@@UAEXPAVGameState@Base@@@Z 0042e640 f   pdusetup.obj
 0001:0002d6e5       ?execute@PDUSetupTableLogoutConfirm@Network@@UAEXPAVGameState@Base@@@Z 0042e6e5 f   pdusetup.obj
 0001:0002d8d0       ??1CBuyInQueryDlg@@UAE@XZ  0042e8d0 f i pdusetup.obj
 0001:0002d950       ?Username@Server@Network@@SAXABVCString@@@Z 0042e950 f i pdusetup.obj
 0001:0002d970       ?Password@Server@Network@@SAXABVCString@@@Z 0042e970 f i pdusetup.obj
 0001:0002d990       ?execute@PDUShowCardsQuery@Network@@UAEXPAVGameState@Base@@@Z 0042e990 f   pdushowcardsquery.obj
 0001:0002d9d0       ??0PDUShowdown@Network@@QAE@PBD@Z 0042e9d0 f   pdushowdown.obj
 0001:0002dc3b       ?execute@PDUShowdown@Network@@UAEXPAVGameState@Base@@@Z 0042ec3b f   pdushowdown.obj
 0001:0002dff0       ?sizeOf@PDUShowdown@Network@@UBEIXZ 0042eff0 f i pdushowdown.obj
 0001:0002e020       ?checkValid@PDUShowdown@Network@@UAEXXZ 0042f020 f i pdushowdown.obj
 0001:0002e140       ??_EPDUShowdown@Network@@UAEPAXI@Z 0042f140 f i pdushowdown.obj
 0001:0002e140       ??_GPDUShowdown@Network@@UAEPAXI@Z 0042f140 f i pdushowdown.obj
 0001:0002e190       ??1PDUShowdown@Network@@UAE@XZ 0042f190 f i pdushowdown.obj
 0001:0002e230       ?execute@PDUSitInQuery@Network@@UAEXPAVGameState@Base@@@Z 0042f230 f   pdusitinquery.obj
 0001:0002e280       ?GetBlinds@Network@@YAXABVCChips@@AAV2@1@Z 0042f280 f   pdutournamentparams.obj
 0001:0002e317       ?execute@PDUTournamentParams@Network@@UAEXPAVGameState@Base@@@Z 0042f317 f   pdutournamentparams.obj
 0001:0002f2b0       ?setRep@CChips@@QAEXK@Z    004302b0 f i pdutournamentparams.obj
 0001:0002f2e0       ?lolimit@CTableView@@QAEXABVCChips@@@Z 004302e0 f i pdutournamentparams.obj
 0001:0002f320       ?hilimit@CTableView@@QAEXABVCChips@@@Z 00430320 f i pdutournamentparams.obj
 0001:0002f360       ?setIsHiLo@CTableView@@QAEX_N@Z 00430360 f i pdutournamentparams.obj
 0001:0002f390       ?getIsHiLo@CTableView@@QBE_NXZ 00430390 f i pdutournamentparams.obj
 0001:0002f3b0       ?execute@PDUUpgradeRequest@Network@@UAEXPAVGameState@Base@@@Z 004303b0 f   pduupgraderequest.obj
 0001:0002f3d0       ??0PDUVerboseTableReply@Network@@QAE@PBD@Z 004303d0 f   pduverbosetablereply.obj
 0001:0002ff7f       ??1PDUVerboseTableReply@Network@@UAE@XZ 00430f7f f   pduverbosetablereply.obj
 0001:0002ffd4       ?execute@PDUVerboseTableReply@Network@@UAEXPAVGameState@Base@@@Z 00430fd4 f   pduverbosetablereply.obj
 0001:0002ffe8       ?populateDialog@PDUVerboseTableReply@Network@@AAEXPAVCTableDetailsDlg@@@Z 00430fe8 f   pduverbosetablereply.obj
 0001:00030310       ?sizeOf@PDUVerboseTableReply@Network@@UBEIXZ 00431310 f i pduverbosetablereply.obj
 0001:00030340       ?checkValid@PDUVerboseTableReply@Network@@UAEXXZ 00431340 f i pduverbosetablereply.obj
 0001:00030480       ??_GPDUVerboseTableReply@Network@@UAEPAXI@Z 00431480 f i pduverbosetablereply.obj
 0001:00030480       ??_EPDUVerboseTableReply@Network@@UAEPAXI@Z 00431480 f i pduverbosetablereply.obj
 0001:000304d0       ?StartSocketReaderThread@?%C:\Documents and Settings\administrator\Desktop\poker_source\client\network\server.cpp38112656@@YAPAVCWinThread@@PAUThreadInfo@Network@@@Z 004314d0 f   server.obj
 0001:000304f2       ?MakeSockAddr@?%C:\Documents and Settings\administrator\Desktop\poker_source\client\network\server.cpp38112656@@YAHPBDFPAUsockaddr@@@Z 004314f2 f   server.obj
 0001:00030606       ?SendClientConfiguration@?%C:\Documents and Settings\administrator\Desktop\poker_source\client\network\server.cpp38112656@@YAHIPAE@Z 00431606 f   server.obj
 0001:0003065c       ?connectsock@?%C:\Documents and Settings\administrator\Desktop\poker_source\client\network\server.cpp38112656@@YAIKG@Z 0043165c f   server.obj
 0001:000308d2       ??0Server@Network@@AAE@I@Z 004318d2 f   server.obj
 0001:00030919       ??1Server@Network@@UAE@XZ  00431919 f   server.obj
 0001:0003094b       ?Connect@Server@Network@@SAPAV12@PAUHWND__@@PBDF@Z 0043194b f   server.obj
 0001:00030acb       ?closeConnection@Server@Network@@UAEXXZ 00431acb f   server.obj
 0001:00030b15       ?sendPDU@Server@Network@@IAEHPAUPDUHeader@2@@Z 00431b15 f   server.obj
 0001:00030b2e       ?Quit@Server@Network@@SAXXZ 00431b2e f   server.obj
 0001:00030bb7       ?sendChatPDU@Server@Network@@UAEHABVCString@@@Z 00431bb7 f   server.obj
 0001:00030c91       ?sendPongPDU@Server@Network@@UAEHI@Z 00431c91 f   server.obj
 0001:00030d3e       ?MakeConnection@Server@Network@@SAIPBDF@Z 00431d3e f   server.obj
 0001:00030e83       ?MakeConnection@Server@Network@@SAIIF@Z 00431e83 f   server.obj
 0001:0003104f       ??0LoungeServer@Network@@AAE@I@Z 0043204f f   server.obj
 0001:00031085       ?ConnectToLounge@LoungeServer@Network@@SAPAV12@PAUHWND__@@PBDF@Z 00432085 f   server.obj
 0001:0003109e       ?ConnectToLounge@LoungeServer@Network@@SAPAV12@PAUHWND__@@KF@Z 0043209e f   server.obj
 0001:000310b7       ?sendLoungeHandshake@LoungeServer@Network@@QAEHPBD@Z 004320b7 f   server.obj
 0001:000310de       ?sendLoungeLoginPDU@LoungeServer@Network@@QAEHPBD0@Z 004320de f   server.obj
 0001:00031105       ?sendLoungeLogoutPDU@LoungeServer@Network@@QAEHXZ 00432105 f   server.obj
 0001:000311a3       ?sendLoungeSurveyPDU@LoungeServer@Network@@QAEHXZ 004321a3 f   server.obj
 0001:00031237       ?sendLoungeSitDownPDU@LoungeServer@Network@@QAEHG@Z 00432237 f   server.obj
 0001:000312d5       ?sendLoungeObservePDU@LoungeServer@Network@@QAEHG@Z 004322d5 f   server.obj
 0001:0003135d       ?sendLoungeCancelSitDownPDU@LoungeServer@Network@@QAEHG@Z 0043235d f   server.obj
 0001:000313fb       ?sendLoungeLogoutCertainPDU@LoungeServer@Network@@QAEHXZ 004323fb f   server.obj
 0001:0003148f       ?sendVerboseTableQueryPDU@LoungeServer@Network@@QAEHG@Z 0043248f f   server.obj
 0001:0003152d       ?sendTournamentDetailsQueryPDU@LoungeServer@Network@@QAEHG@Z 0043252d f   server.obj
 0001:000315b5       ?sendHibernatePDU@LoungeServer@Network@@QAEH_N@Z 004325b5 f   server.obj
 0001:000315cb       ?sendLoungeTableLogoutPDU@LoungeServer@Network@@QAEHG@Z 004325cb f   server.obj
 0001:00031673       ?sendBalanceQueryPDU@LoungeServer@Network@@QAEHXZ 00432673 f   server.obj
 0001:000316f1       ?sendCardQueryPDU@LoungeServer@Network@@QAEHXZ 004326f1 f   server.obj
 0001:0003176f       ?sendCCardQueryPDU2@LoungeServer@Network@@QAEH_N@Z 0043276f f   server.obj
 0001:000317f6       ?sendCCardEditPDU@LoungeServer@Network@@QAEHABV?$list@UCreditCardData@Network@@V?$allocator@UCreditCardData@Network@@@std@@@std@@@Z 004327f6 f   server.obj
 0001:00031886       ?sendBuyInRequestPDU@LoungeServer@Network@@QAEHGABVCChips@@@Z 00432886 f   server.obj
 0001:00031915       ?sendCashOutRequestPDU@LoungeServer@Network@@QAEHABVCChips@@@Z 00432915 f   server.obj
 0001:0003199c       ?sendTransactionQueryPDU@LoungeServer@Network@@QAEHXZ 0043299c f   server.obj
 0001:00031a1a       ??0TableServer@Network@@AAE@I@Z 00432a1a f   server.obj
 0001:00031a59       ?ConnectToTable@TableServer@Network@@SAPAV12@PAUHWND__@@IF@Z 00432a59 f   server.obj
 0001:00031bf7       ?ConnectToTable@TableServer@Network@@SAPAV12@PAUHWND__@@PBDF@Z 00432bf7 f   server.obj
 0001:00031d9b       ?sendSetupTableLogin@TableServer@Network@@QAEHPBD0@Z 00432d9b f   server.obj
 0001:00031ea7       ?sendSetupTableLogout@TableServer@Network@@QAEHXZ 00432ea7 f   server.obj
 0001:00031f85       ?sendSetupObserverLogin@TableServer@Network@@QAEHPBD0@Z 00432f85 f   server.obj
 0001:00032091       ?sendSetupObserverLogout@TableServer@Network@@QAEHXZ 00433091 f   server.obj
 0001:00032143       ?sendSetupBuyInRequestPDU@TableServer@Network@@QAEHABVCChips@@@Z 00433143 f   server.obj
 0001:000321e0       ?sendSetupHandLogRequestPDU@TableServer@Network@@QAEHGPBD@Z 004331e0 f   server.obj
 0001:0003227c       ?sendSetupBuyinMore@TableServer@Network@@QAEHXZ 0043327c f   server.obj
 0001:000322fa       ?sendPlayActionCallPDU@TableServer@Network@@QAEHXZ 004332fa f   server.obj
 0001:0003239b       ?sendPlayActionFoldPDU@TableServer@Network@@QAEHXZ 0043339b f   server.obj
 0001:0003243c       ?sendPlayActionRaisePDU@TableServer@Network@@QAEHXZ 0043343c f   server.obj
 0001:000324dd       ?sendPlayActionSpreadRaisePDU@TableServer@Network@@QAEHABVCChips@@@Z 004334dd f   server.obj
 0001:0003258a       ?sendPlaySitInPDU@TableServer@Network@@QAEHXZ 0043358a f   server.obj
 0001:0003261e       ?sendPlaySitOutPDU@TableServer@Network@@QAEHXZ 0043361e f   server.obj
 0001:000326b2       ?sendPlayPostBlindPDU@TableServer@Network@@QAEHXZ 004336b2 f   server.obj
 0001:00032751       ?sendPlayRefuseBlindPDU@TableServer@Network@@QAEHXZ 00433751 f   server.obj
 0001:000327f0       ?sendPlayShowCardsPDU@TableServer@Network@@QAEHXZ 004337f0 f   server.obj
 0001:00032889       ?sendPlayHideCardsPDU@TableServer@Network@@QAEHXZ 00433889 f   server.obj
 0001:00032922       ?sendHeartBeatPDU@TableServer@Network@@QAEHXZ 00433922 f   server.obj
 0001:000332e0       ??_GServer@Network@@UAEPAXI@Z 004342e0 f i server.obj
 0001:000332e0       ??_EServer@Network@@UAEPAXI@Z 004342e0 f i server.obj
 0001:00033330       ??0PDUChat@Network@@QAE@PBD00H@Z 00434330 f i server.obj
 0001:000334a0       ??0PDUPong@Network@@QAE@PBD0I@Z 004344a0 f i server.obj
 0001:00033510       ?sizeOf@PDUPong@Network@@UBEIXZ 00434510 f i server.obj
 0001:00033540       ?write@PDUPong@Network@@UBEPAEPAD@Z 00434540 f i server.obj
 0001:00033690       ??_GPDUPong@Network@@UAEPAXI@Z 00434690 f i server.obj
 0001:00033690       ??_EPDUPong@Network@@UAEPAXI@Z 00434690 f i server.obj
 0001:000336e0       ??1PDUPong@Network@@UAE@XZ 004346e0 f i server.obj
 0001:00033710       ??_ELoungeServer@Network@@UAEPAXI@Z 00434710 f i server.obj
 0001:00033710       ??_GLoungeServer@Network@@UAEPAXI@Z 00434710 f i server.obj
 0001:00033760       ??1LoungeServer@Network@@UAE@XZ 00434760 f i server.obj
 0001:00033790       ??0PDULoungeLogout@Network@@QAE@PBD0@Z 00434790 f i server.obj
 0001:000337f0       ?write@PDULoungeLogout@Network@@UBEPAEPAD@Z 004347f0 f i server.obj
 0001:00033870       ??_EPDULoungeLogout@Network@@UAEPAXI@Z 00434870 f i server.obj
 0001:00033870       ??_GPDULoungeLogout@Network@@UAEPAXI@Z 00434870 f i server.obj
 0001:000338c0       ??1PDULoungeLogout@Network@@UAE@XZ 004348c0 f i server.obj
 0001:000338f0       ??0PDULoungeSurvey@Network@@QAE@PBD0@Z 004348f0 f i server.obj
 0001:00033950       ?write@PDULoungeSurvey@Network@@UBEPAEPAD@Z 00434950 f i server.obj
 0001:000339d0       ??_GPDULoungeSurvey@Network@@UAEPAXI@Z 004349d0 f i server.obj
 0001:000339d0       ??_EPDULoungeSurvey@Network@@UAEPAXI@Z 004349d0 f i server.obj
 0001:00033a20       ??1PDULoungeSurvey@Network@@UAE@XZ 00434a20 f i server.obj
 0001:00033a50       ??0PDULoungeSitDown@Network@@QAE@PBD0G@Z 00434a50 f i server.obj
 0001:00033ac0       ?sizeOf@PDULoungeSitDown@Network@@UBEIXZ 00434ac0 f i server.obj
 0001:00033af0       ?write@PDULoungeSitDown@Network@@UBEPAEPAD@Z 00434af0 f i server.obj
 0001:00033c40       ??_EPDULoungeSitDown@Network@@UAEPAXI@Z 00434c40 f i server.obj
 0001:00033c40       ??_GPDULoungeSitDown@Network@@UAEPAXI@Z 00434c40 f i server.obj
 0001:00033c90       ??1PDULoungeSitDown@Network@@UAE@XZ 00434c90 f i server.obj
 0001:00033cc0       ??0PDULoungeObserve@Network@@QAE@G@Z 00434cc0 f i server.obj
 0001:00033d20       ?sizeOf@PDULoungeObserve@Network@@UBEIXZ 00434d20 f i server.obj
 0001:00033d50       ?write@PDULoungeObserve@Network@@UBEPAEPAD@Z 00434d50 f i server.obj
 0001:00033ea0       ??_EPDULoungeObserve@Network@@UAEPAXI@Z 00434ea0 f i server.obj
 0001:00033ea0       ??_GPDULoungeObserve@Network@@UAEPAXI@Z 00434ea0 f i server.obj
 0001:00033ef0       ??1PDULoungeObserve@Network@@UAE@XZ 00434ef0 f i server.obj
 0001:00033f20       ??0PDULoungeCancelSitDown@Network@@QAE@PBD0G@Z 00434f20 f i server.obj
 0001:00033f90       ?sizeOf@PDULoungeCancelSitDown@Network@@UBEIXZ 00434f90 f i server.obj
 0001:00033fc0       ?write@PDULoungeCancelSitDown@Network@@UBEPAEPAD@Z 00434fc0 f i server.obj
 0001:00034110       ??_GPDULoungeCancelSitDown@Network@@UAEPAXI@Z 00435110 f i server.obj
 0001:00034110       ??_EPDULoungeCancelSitDown@Network@@UAEPAXI@Z 00435110 f i server.obj
 0001:00034160       ??1PDULoungeCancelSitDown@Network@@UAE@XZ 00435160 f i server.obj
 0001:00034190       ??0PDULoungeLogoutCertain@Network@@QAE@PBD0@Z 00435190 f i server.obj
 0001:000341f0       ?write@PDULoungeLogoutCertain@Network@@UBEPAEPAD@Z 004351f0 f i server.obj
 0001:00034270       ??_GPDULoungeLogoutCertain@Network@@UAEPAXI@Z 00435270 f i server.obj
 0001:00034270       ??_EPDULoungeLogoutCertain@Network@@UAEPAXI@Z 00435270 f i server.obj
 0001:000342c0       ??1PDULoungeLogoutCertain@Network@@UAE@XZ 004352c0 f i server.obj
 0001:000342f0       ??0PDUVerboseTableQuery@Network@@QAE@PBD0G@Z 004352f0 f i server.obj
 0001:00034360       ?sizeOf@PDUVerboseTableQuery@Network@@UBEIXZ 00435360 f i server.obj
 0001:00034390       ?write@PDUVerboseTableQuery@Network@@UBEPAEPAD@Z 00435390 f i server.obj
 0001:000344e0       ??_GPDUVerboseTableQuery@Network@@UAEPAXI@Z 004354e0 f i server.obj
 0001:000344e0       ??_EPDUVerboseTableQuery@Network@@UAEPAXI@Z 004354e0 f i server.obj
 0001:00034530       ??1PDUVerboseTableQuery@Network@@UAE@XZ 00435530 f i server.obj
 0001:00034560       ??0PDUTournamentDetailsQuery@Network@@QAE@G@Z 00435560 f i server.obj
 0001:000345c0       ?sizeOf@PDUTournamentDetailsQuery@Network@@UBEIXZ 004355c0 f i server.obj
 0001:000345f0       ?write@PDUTournamentDetailsQuery@Network@@UBEPAEPAD@Z 004355f0 f i server.obj
 0001:00034660       ??_GPDUTournamentDetailsQuery@Network@@UAEPAXI@Z 00435660 f i server.obj
 0001:00034660       ??_EPDUTournamentDetailsQuery@Network@@UAEPAXI@Z 00435660 f i server.obj
 0001:000346b0       ??1PDUTournamentDetailsQuery@Network@@UAE@XZ 004356b0 f i server.obj
 0001:000346e0       ??0PDULoungeTableLogout@Network@@QAE@PBD0G@Z 004356e0 f i server.obj
 0001:00034750       ?sizeOf@PDULoungeTableLogout@Network@@UBEIXZ 00435750 f i server.obj
 0001:00034780       ?write@PDULoungeTableLogout@Network@@UBEPAEPAD@Z 00435780 f i server.obj
 0001:00034820       ??_EPDULoungeTableLogout@Network@@UAEPAXI@Z 00435820 f i server.obj
 0001:00034820       ??_GPDULoungeTableLogout@Network@@UAEPAXI@Z 00435820 f i server.obj
 0001:00034870       ??1PDULoungeTableLogout@Network@@UAE@XZ 00435870 f i server.obj
 0001:000348a0       ??0PDUBalanceQuery@Network@@QAE@XZ 004358a0 f i server.obj
 0001:000348f0       ?write@PDUBalanceQuery@Network@@UBEPAEPAD@Z 004358f0 f i server.obj
 0001:00034960       ??_GPDUBalanceQuery@Network@@UAEPAXI@Z 00435960 f i server.obj
 0001:00034960       ??_EPDUBalanceQuery@Network@@UAEPAXI@Z 00435960 f i server.obj
 0001:000349b0       ??1PDUBalanceQuery@Network@@UAE@XZ 004359b0 f i server.obj
 0001:000349e0       ??0PDUCreditCardQuery@Network@@QAE@XZ 004359e0 f i server.obj
 0001:00034a30       ?write@PDUCreditCardQuery@Network@@UBEPAEPAD@Z 00435a30 f i server.obj
 0001:00034aa0       ??_GPDUCreditCardQuery@Network@@UAEPAXI@Z 00435aa0 f i server.obj
 0001:00034aa0       ??_EPDUCreditCardQuery@Network@@UAEPAXI@Z 00435aa0 f i server.obj
 0001:00034af0       ??1PDUCreditCardQuery@Network@@UAE@XZ 00435af0 f i server.obj
 0001:00034b20       ??0PDUCreditCardQuery2@Network@@QAE@_N@Z 00435b20 f i server.obj
 0001:00034b90       ?sizeOf@PDUCreditCardQuery2@Network@@UBEIXZ 00435b90 f i server.obj
 0001:00034bc0       ?write@PDUCreditCardQuery2@Network@@UBEPAEPAD@Z 00435bc0 f i server.obj
 0001:00034c30       ??_GPDUCreditCardQuery2@Network@@UAEPAXI@Z 00435c30 f i server.obj
 0001:00034c30       ??_EPDUCreditCardQuery2@Network@@UAEPAXI@Z 00435c30 f i server.obj
 0001:00034c80       ??1PDUCreditCardQuery2@Network@@UAE@XZ 00435c80 f i server.obj
 0001:00034cb0       ??0PDULoungeBuyInRequest@Network@@QAE@GABVCChips@@@Z 00435cb0 f i server.obj
 0001:00034d60       ?sizeOf@PDULoungeBuyInRequest@Network@@UBEIXZ 00435d60 f i server.obj
 0001:00034d90       ?write@PDULoungeBuyInRequest@Network@@UBEPAEPAD@Z 00435d90 f i server.obj
 0001:00034f30       ??_GPDULoungeBuyInRequest@Network@@UAEPAXI@Z 00435f30 f i server.obj
 0001:00034f30       ??_EPDULoungeBuyInRequest@Network@@UAEPAXI@Z 00435f30 f i server.obj
 0001:00034f80       ??1PDULoungeBuyInRequest@Network@@UAE@XZ 00435f80 f i server.obj
 0001:00034fb0       ??0PDULoungeCashOutRequest@Network@@QAE@ABVCChips@@@Z 00435fb0 f i server.obj
 0001:00035050       ?sizeOf@PDULoungeCashOutRequest@Network@@UBEIXZ 00436050 f i server.obj
 0001:00035080       ?write@PDULoungeCashOutRequest@Network@@UBEPAEPAD@Z 00436080 f i server.obj
 0001:000351e0       ??_GPDULoungeCashOutRequest@Network@@UAEPAXI@Z 004361e0 f i server.obj
 0001:000351e0       ??_EPDULoungeCashOutRequest@Network@@UAEPAXI@Z 004361e0 f i server.obj
 0001:00035230       ??1PDULoungeCashOutRequest@Network@@UAE@XZ 00436230 f i server.obj
 0001:00035260       ??0PDULoungeTransactionQuery@Network@@QAE@XZ 00436260 f i server.obj
 0001:000352b0       ?write@PDULoungeTransactionQuery@Network@@UBEPAEPAD@Z 004362b0 f i server.obj
 0001:00035320       ??_GPDULoungeTransactionQuery@Network@@UAEPAXI@Z 00436320 f i server.obj
 0001:00035320       ??_EPDULoungeTransactionQuery@Network@@UAEPAXI@Z 00436320 f i server.obj
 0001:00035370       ??1PDULoungeTransactionQuery@Network@@UAE@XZ 00436370 f i server.obj
 0001:000353a0       ??_ETableServer@Network@@UAEPAXI@Z 004363a0 f i server.obj
 0001:000353a0       ??_GTableServer@Network@@UAEPAXI@Z 004363a0 f i server.obj
 0001:000353f0       ??1TableServer@Network@@UAE@XZ 004363f0 f i server.obj
 0001:00035420       ?Instance@CMainWnd@@SAPAV1@XZ 00436420 f i server.obj
 0001:00035430       ??0PDUSetupTableLogin@Network@@QAE@PBD0@Z 00436430 f i server.obj
 0001:00035540       ??0PDUSetupTableLogout@Network@@QAE@PBD0@Z 00436540 f i server.obj
 0001:000355a0       ??0PDUSetupObserverLogin@Network@@QAE@PBD0@Z 004365a0 f i server.obj
 0001:000356b0       ?sizeOf@PDUSetupObserverLogin@Network@@UBEIXZ 004366b0 f i server.obj
 0001:000356e0       ?write@PDUSetupObserverLogin@Network@@UBEPAEPAD@Z 004366e0 f i server.obj
 0001:000358c0       ??_EPDUSetupObserverLogin@Network@@UAEPAXI@Z 004368c0 f i server.obj
 0001:000358c0       ??_GPDUSetupObserverLogin@Network@@UAEPAXI@Z 004368c0 f i server.obj
 0001:00035910       ??1PDUSetupObserverLogin@Network@@UAE@XZ 00436910 f i server.obj
 0001:00035940       ??0PDUSetupObserverLogout@Network@@QAE@PBD0@Z 00436940 f i server.obj
 0001:000359a0       ?write@PDUSetupObserverLogout@Network@@UBEPAEPAD@Z 004369a0 f i server.obj
 0001:00035a20       ??_EPDUSetupObserverLogout@Network@@UAEPAXI@Z 00436a20 f i server.obj
 0001:00035a20       ??_GPDUSetupObserverLogout@Network@@UAEPAXI@Z 00436a20 f i server.obj
 0001:00035a70       ??1PDUSetupObserverLogout@Network@@UAE@XZ 00436a70 f i server.obj
 0001:00035aa0       ??0PDUSetupBuyInRequest@Network@@QAE@PBD0ABVCChips@@@Z 00436aa0 f i server.obj
 0001:00035b50       ??0PDUBuyInMore@Network@@QAE@XZ 00436b50 f i server.obj
 0001:00035bb0       ?write@PDUBuyInMore@Network@@UBEPAEPAD@Z 00436bb0 f i server.obj
 0001:00035c30       ??_GPDUBuyInMore@Network@@UAEPAXI@Z 00436c30 f i server.obj
 0001:00035c30       ??_EPDUBuyInMore@Network@@UAEPAXI@Z 00436c30 f i server.obj
 0001:00035c80       ??1PDUBuyInMore@Network@@UAE@XZ 00436c80 f i server.obj
 0001:00035cb0       ??0PDUAction@Network@@QAE@PBD0GG@Z 00436cb0 f i server.obj
 0001:00035d30       ??0PDUActionSpreadLimit@Network@@QAE@PBD0GABVCChips@@G@Z 00436d30 f i server.obj
 0001:00035df0       ?sizeOf@PDUActionSpreadLimit@Network@@UBEIXZ 00436df0 f i server.obj
 0001:00035e20       ?write@PDUActionSpreadLimit@Network@@UBEPAEPAD@Z 00436e20 f i server.obj
 0001:00035ff0       ??_GPDUActionSpreadLimit@Network@@UAEPAXI@Z 00436ff0 f i server.obj
 0001:00035ff0       ??_EPDUActionSpreadLimit@Network@@UAEPAXI@Z 00436ff0 f i server.obj
 0001:00036040       ??1PDUActionSpreadLimit@Network@@UAE@XZ 00437040 f i server.obj
 0001:00036070       ??0PDUSitIn@Network@@QAE@PBD0@Z 00437070 f i server.obj
 0001:000360d0       ??0PDUSitOut@Network@@QAE@PBD0@Z 004370d0 f i server.obj
 0001:00036130       ??0PDUPostBlind@Network@@QAE@PBD0G@Z 00437130 f i server.obj
 0001:000361a0       ??0PDURefuseBlind@Network@@QAE@PBD0G@Z 004371a0 f i server.obj
 0001:00036210       ?sizeOf@PDURefuseBlind@Network@@UBEIXZ 00437210 f i server.obj
 0001:00036240       ?write@PDURefuseBlind@Network@@UBEPAEPAD@Z 00437240 f i server.obj
 0001:000362e0       ??_GPDURefuseBlind@Network@@UAEPAXI@Z 004372e0 f i server.obj
 0001:000362e0       ??_EPDURefuseBlind@Network@@UAEPAXI@Z 004372e0 f i server.obj
 0001:00036330       ??1PDURefuseBlind@Network@@UAE@XZ 00437330 f i server.obj
 0001:00036360       ??0PDUShowCards@Network@@QAE@PBD0G@Z 00437360 f i server.obj
 0001:000363d0       ??0PDUHeartBeat@Network@@QAE@XZ 004373d0 f i server.obj
 0001:00036430       ??_GPDUHeartBeat@Network@@UAEPAXI@Z 00437430 f i server.obj
 0001:00036430       ??_EPDUHeartBeat@Network@@UAEPAXI@Z 00437430 f i server.obj
 0001:00036480       ??1PDUHeartBeat@Network@@UAE@XZ 00437480 f i server.obj
 0001:000364b0       ?GetSSL@?%C:\Documents and Settings\administrator\Desktop\poker_source\client\network\ssl.cpp1803212550@@YAPAUssl_st@@I@Z 004374b0 f   ssl.obj
 0001:000364f6       ?SetSSL@?%C:\Documents and Settings\administrator\Desktop\poker_source\client\network\ssl.cpp1803212550@@YAXIPAUssl_st@@@Z 004374f6 f   ssl.obj
 0001:00036578       ?ClearSSL@?%C:\Documents and Settings\administrator\Desktop\poker_source\client\network\ssl.cpp1803212550@@YAXI@Z 00437578 f   ssl.obj
 0001:000365fe       ?InitSocket2SSL@?%C:\Documents and Settings\administrator\Desktop\poker_source\client\network\ssl.cpp1803212550@@YAXXZ 004375fe f   ssl.obj
 0001:00036643       ?PSI_SSL_Enable@@YAXH@Z    00437643 f   ssl.obj
 0001:00036650       ?PSI_SSL_IsEnabled@@YAHXZ  00437650 f   ssl.obj
 0001:0003665a       ?PSI_SSL_Init@@YAHXZ       0043765a f   ssl.obj
 0001:000366d1       ?PSI_SSL_Start@@YAHI@Z     004376d1 f   ssl.obj
 0001:00036848       ?PSI_SSL_Read@@YAHIPADH@Z  00437848 f   ssl.obj
 0001:00036997       ?PSI_SSL_Write@@YAHIPADH@Z 00437997 f   ssl.obj
 0001:00036ab9       ?PSI_SSL_Close@@YAHI@Z     00437ab9 f   ssl.obj
 0001:00036b4a       ?PSI_SSL_Cleanup@@YAXXZ    00437b4a f   ssl.obj
 0001:00036d30       ?ImplementAnte@Base@@YAXPAVPlayer@1@HABVCChips@@@Z 00437d30 f   actionimpl.obj
 0001:00036fe5       ?ImplementCall@Base@@YAXPAVPlayer@1@HABVCChips@@@Z 00437fe5 f   actionimpl.obj
 0001:00037315       ?ImplementRaise@Base@@YAXPAVPlayer@1@HABVCChips@@1@Z 00438315 f   actionimpl.obj
 0001:00037acf       ?ImplementFold@Base@@YAXPAVPlayer@1@H@Z 00438acf f   actionimpl.obj
 0001:00037cac       ?ImplementSitOut@Base@@YAXGPAVPlayer@1@@Z 00438cac f   actionimpl.obj
 0001:00038200       ?getDrawChips@Community@@QBE?AVCChips@@XZ 00439200 f i actionimpl.obj
 0001:00038240       ?OutputLastError@?%C:\Documents and Settings\administrator\Desktop\poker_source\client\base\base_registry.cpp3215612625@@YAXXZ 00439240 f   base_registry.obj
 0001:0003831d       ??0Registry@Base@@QAE@PAUHKEY__@@PBD@Z 0043931d f   base_registry.obj
 0001:0003836e       ??1Registry@Base@@QAE@XZ   0043936e f   base_registry.obj
 0001:000383a1       ?getProfileString@Registry@Base@@QAE?AV?$basic_string@DU?$char_traits@D@std@@V?$allocator@D@2@@std@@PBD0@Z 004393a1 f   base_registry.obj
 0001:0003852a       ?getProfileInt@Registry@Base@@QAEHPBDH@Z 0043952a f   base_registry.obj
 0001:000385fd       ?getProfileBool@Registry@Base@@QAE_NPBD_N@Z 004395fd f   base_registry.obj
 0001:000386d0       ?setProfileString@Registry@Base@@QAEJPBD0@Z 004396d0 f   base_registry.obj
 0001:000387e1       ?setProfileInt@Registry@Base@@QAEJPBDH@Z 004397e1 f   base_registry.obj
 0001:000388df       ?enumKeys@Registry@Base@@QAEXPBDP6AHPAUHKEY__@@00PAX@Z2@Z 004398df f   base_registry.obj
 0001:00038e57       ?DrawSprite@Cards@Base@@SAHPAUHDC__@@ABVCPoint@@1HHPAUHBITMAP__@@22@Z 00439e57 f   cards.obj
 0001:00039216       ??0Cards@Base@@QAE@XZ      0043a216 f   cards.obj
 0001:000392ea       ??1Cards@Base@@UAE@XZ      0043a2ea f   cards.obj
 0001:000393bb       ?Instance@Cards@Base@@SAAAV12@XZ 0043a3bb f   cards.obj
 0001:000393c5       ?loadBitmaps@Cards@Base@@AAEHXZ 0043a3c5 f   cards.obj
 0001:000394f5       ?drawCard@Cards@Base@@QAEHPAVCDC@@ABVCard@2@HHK@Z 0043a4f5 f   cards.obj
 0001:000396da       ?bltCard@Cards@Base@@AAEHPAVCDC@@HHHHHHPAVCBitmap@@1@Z 0043a6da f   cards.obj
 0001:000398eb       ?animate@Cards@Base@@QAEHPAVCDC@@ABVCard@2@ABVCPoint@@2K@Z 0043a8eb f   cards.obj
 0001:00039a06       ?startAnimate@Cards@Base@@QAEHPAVCDC@@ABVCPoint@@K@Z 0043aa06 f   cards.obj
 0001:00039b5f       ?stopAnimate@Cards@Base@@QAEHPAVCDC@@ABVCPoint@@K@Z 0043ab5f f   cards.obj
 0001:00039c80       ?startFlip@Cards@Base@@QAEHABVCard@2@ABVCPoint@@@Z 0043ac80 f   cards.obj
 0001:00039dd4       ?flip@Cards@Base@@QAEHPAVCDC@@ABVCard@2@ABVCPoint@@K@Z 0043add4 f   cards.obj
 0001:00039fb6       ?loadOpenCardBitmaps2@Cards@Base@@QAEHPBD0PAVCString@@@Z 0043afb6 f   cards.obj
 0001:0003a2b7       ?loadOpenCardBitmaps@Cards@Base@@QAEHPBD0PAVCString@@@Z 0043b2b7 f   cards.obj
 0001:0003a71f       ?getImage@Cards@Base@@AAEAAVCBitmap@@ABVCard@2@@Z 0043b71f f   cards.obj
 0001:0003a84f       ?loadBacksideBitmaps@Cards@Base@@QAEHPBD0PAVCString@@@Z 0043b84f f   cards.obj
 0001:0003ab21       ?animate@Cards@Base@@QAEHPAVCDC@@ABVCBitmap@@1HHABVCPoint@@2@Z 0043bb21 f   cards.obj
 0001:0003abc0       ?startAnimate@Cards@Base@@QAEHPAVCDC@@ABVCBitmap@@1HHABVCPoint@@@Z 0043bbc0 f   cards.obj
 0001:0003accb       ?stopAnimate@Cards@Base@@QAEHPAVCDC@@HHABVCPoint@@@Z 0043bccb f   cards.obj
 0001:0003b5c0       ??_GCards@Base@@UAEPAXI@Z  0043c5c0 f i cards.obj
 0001:0003b5c0       ??_ECards@Base@@UAEPAXI@Z  0043c5c0 f i cards.obj
 0001:0003b610       ?suit@Card@Base@@QBE?AW4Suit@2@XZ 0043c610 f i cards.obj
 0001:0003b630       ?number@Card@Base@@QBEHXZ  0043c630 f i cards.obj
 0001:0003b650       ??0?$vector@VCRect@@V?$allocator@VCRect@@@std@@@std@@QAE@ABV?$allocator@VCRect@@@1@@Z 0043c650 f i cards.obj
 0001:0003b6a0       ??1?$vector@VCRect@@V?$allocator@VCRect@@@std@@@std@@QAE@XZ 0043c6a0 f i cards.obj
 0001:0003b730       ?begin@?$vector@VCRect@@V?$allocator@VCRect@@@std@@@std@@QAEPAVCRect@@XZ 0043c730 f i cards.obj
 0001:0003b750       ?end@?$vector@VCRect@@V?$allocator@VCRect@@@std@@@std@@QAEPAVCRect@@XZ 0043c750 f i cards.obj
 0001:0003b770       ?size@?$vector@VCRect@@V?$allocator@VCRect@@@std@@@std@@QBEIXZ 0043c770 f i cards.obj
 0001:0003b7d0       ?push_back@?$vector@VCRect@@V?$allocator@VCRect@@@std@@@std@@QAEXABVCRect@@@Z 0043c7d0 f i cards.obj
 0001:0003b810       ?insert@?$vector@VCRect@@V?$allocator@VCRect@@@std@@@std@@QAEPAVCRect@@PAV3@ABV3@@Z 0043c810 f i cards.obj
 0001:0003b890       ?_Destroy@?$vector@VCRect@@V?$allocator@VCRect@@@std@@@std@@IAEXPAVCRect@@0@Z 0043c890 f i cards.obj
 0001:0003b8e0       ?deallocate@?$allocator@VCRect@@@std@@QAEXPAXI@Z 0043c8e0 f i cards.obj
 0001:0003b920       ?insert@?$vector@VCRect@@V?$allocator@VCRect@@@std@@@std@@QAEXPAVCRect@@IABV3@@Z 0043c920 f i cards.obj
 0001:0003bc00       ?destroy@?$allocator@VCRect@@@std@@QAEXPAVCRect@@@Z 0043cc00 f i cards.obj
 0001:0003bc40       ?_Ucopy@?$vector@VCRect@@V?$allocator@VCRect@@@std@@@std@@IAEPAVCRect@@PBV3@0PAV3@@Z 0043cc40 f i cards.obj
 0001:0003bcb0       ?_Ufill@?$vector@VCRect@@V?$allocator@VCRect@@@std@@@std@@IAEXPAVCRect@@IABV3@@Z 0043ccb0 f i cards.obj
 0001:0003bd10       ?allocate@?$allocator@VCRect@@@std@@QAEPAVCRect@@IPBX@Z 0043cd10 f i cards.obj
 0001:0003bd50       ?construct@?$allocator@VCRect@@@std@@QAEXPAVCRect@@ABV3@@Z 0043cd50 f i cards.obj
 0001:0003bd90       ?random_shuffle@std@@YAXPAVCRect@@0@Z 0043cd90 f i cards.obj
 0001:0003bdd0       ?fill@std@@YAXPAVCRect@@0ABV2@@Z 0043cdd0 f i cards.obj
 0001:0003be20       ?copy_backward@std@@YAPAVCRect@@PAV2@00@Z 0043ce20 f i cards.obj
 0001:0003be70       ?_Destroy@std@@YAXPAVCRect@@@Z 0043ce70 f i cards.obj
 0001:0003be80       ?_Allocate@std@@YAPAVCRect@@HPAV2@@Z 0043ce80 f i cards.obj
 0001:0003bec0       ?_Construct@std@@YAXPAVCRect@@ABV2@@Z 0043cec0 f i cards.obj
 0001:0003bf40       ?_Dist_type@std@@YAPAHPBVCRect@@@Z 0043cf40 f i cards.obj
 0001:0003bf50       ?_Random_shuffle@std@@YAXPAVCRect@@0PAH@Z 0043cf50 f i cards.obj
 0001:0003c060       ?iter_swap@std@@YAXPAVCRect@@0@Z 0043d060 f i cards.obj
 0001:0003c0a0       ?_Val_type@std@@YAPAVCRect@@PBV2@@Z 0043d0a0 f i cards.obj
 0001:0003c0b0       ?_Iter_swap@std@@YAXPAVCRect@@00@Z 0043d0b0 f i cards.obj
 0001:0003c140       ??0CardsAnimate@Base@@QAE@XZ 0043d140 f   cardsanimate.obj
 0001:0003c233       ?startAnimate@CardsAnimate@Base@@QAEXHHHI@Z 0043d233 f   cardsanimate.obj
 0001:0003c3c5       ?stopAnimate@CardsAnimate@Base@@QAEXXZ 0043d3c5 f   cardsanimate.obj
 0001:0003c501       ?stepAnimate@CardsAnimate@Base@@QAEHK@Z 0043d501 f   cardsanimate.obj
 0001:0003c678       ?animate@CardsAnimate@Base@@AAEXABVCPoint@@0@Z 0043d678 f   cardsanimate.obj
 0001:0003c727       ?loadBitmaps@CardsAnimate@Base@@AAE_NH@Z 0043d727 f   cardsanimate.obj
 0001:0003caf0       ??0ChipsAnimate@Base@@QAE@XZ 0043daf0 f   chipsanimate.obj
 0001:0003cb76       ?startAnimate@ChipsAnimate@Base@@QAEXHHABVCChips@@H@Z 0043db76 f   chipsanimate.obj
 0001:0003cd0b       ?stopAnimate@ChipsAnimate@Base@@QAEXXZ 0043dd0b f   chipsanimate.obj
 0001:0003ce75       ?stepAnimate@ChipsAnimate@Base@@QAEHK@Z 0043de75 f   chipsanimate.obj
 0001:0003cfb8       ?animate@ChipsAnimate@Base@@AAEXABVCPoint@@0@Z 0043dfb8 f   chipsanimate.obj
 0001:0003d170       ?encrypt@@YA?AVCString@@ABV1@G@Z 0043e170 f   cipher.obj
 0001:0003d26d       ?decrypt@@YA?AVCString@@ABV1@G@Z 0043e26d f   cipher.obj
 0001:0003d36a       ?do_cipher@@YA?AVCString@@PBDHW4Cipher_Op@@@Z 0043e36a f   cipher.obj
 0001:0003d500       ?DrawBumpText@Base@@YAXPAVCDC@@PBDABVCPoint@@ABK3@Z 0043e500 f   draw.obj
 0001:0003d615       ?DrawBumpText@Base@@YAXPAVCDC@@PBDAAVCRect@@IABK3@Z 0043e615 f   draw.obj
 0001:0003d76a       ?DrawBumpText@Base@@YAXPAVCDC@@PBDAAVCRect@@IABK33@Z 0043e76a f   draw.obj
 0001:0003d94b       ?DrawBumpRect@Base@@YAXPAVCDC@@ABVCRect@@ABK2@Z 0043e94b f   draw.obj
 0001:0003da88       ?DrawRectAlpha@Base@@YAXPAVCDC@@ABVCRect@@EEEE@Z 0043ea88 f   draw.obj
 0001:0003dd5b       ?Instance@GameLogic@Base@@SAAAV12@XZ 0043ed5b f   gamelogic.obj
 0001:0003dd65       ??0GameLogic@Base@@QAE@XZ  0043ed65 f   gamelogic.obj
 0001:0003de09       ??1GameLogic@Base@@UAE@XZ  0043ee09 f   gamelogic.obj
 0001:0003de6e       ?tick@GameLogic@Base@@UAEHK@Z 0043ee6e f   gamelogic.obj
 0001:0003dee8       ?draw@GameLogic@Base@@UAEHPAVCDC@@@Z 0043eee8 f   gamelogic.obj
 0001:0003df45       ?onCommand@GameLogic@Base@@UAEHIJ@Z 0043ef45 f   gamelogic.obj
 0001:0003dfdc       ?onKey@GameLogic@Base@@UAEHIII@Z 0043efdc f   gamelogic.obj
 0001:0003e041       ?SendCallActionPDU@GameLogic@Base@@SAXXZ 0043f041 f   gamelogic.obj
 0001:0003e062       ?SendRaiseActionPDU@GameLogic@Base@@SAXXZ 0043f062 f   gamelogic.obj
 0001:0003e083       ?SendSpreadRaiseActionPDU@GameLogic@Base@@SAXXZ 0043f083 f   gamelogic.obj
 0001:0003e0cf       ?SendFoldActionPDU@GameLogic@Base@@SAXXZ 0043f0cf f   gamelogic.obj
 0001:0003e0f0       ?SendSitOutPDU@GameLogic@Base@@SAXXZ 0043f0f0 f   gamelogic.obj
 0001:0003e111       ?SendSitInPDU@GameLogic@Base@@SAXXZ 0043f111 f   gamelogic.obj
 0001:0003e132       ?SendPostBlindPDU@GameLogic@Base@@SAXXZ 0043f132 f   gamelogic.obj
 0001:0003e153       ?SendRefuseBlindPDU@GameLogic@Base@@SAXXZ 0043f153 f   gamelogic.obj
 0001:0003e174       ?SendShowCardsPDU@GameLogic@Base@@SAXXZ 0043f174 f   gamelogic.obj
 0001:0003e195       ?SendHideCardsPDU@GameLogic@Base@@SAXXZ 0043f195 f   gamelogic.obj
 0001:0003e1b6       ?showMotd@GameLogic@Base@@UAEHXZ 0043f1b6 f   gamelogic.obj
 0001:0003e1ca       ?floorMap@GameLogic@Base@@UAEHXZ 0043f1ca f   gamelogic.obj
 0001:0003e1de       ?joinTable@GameLogic@Base@@UAEHXZ 0043f1de f   gamelogic.obj
 0001:0003e1f2       ?leaveTable@GameLogic@Base@@UAEHXZ 0043f1f2 f   gamelogic.obj
 0001:0003e206       ?scheduleState@GameLogic@Base@@UAEHPAVGameState@2@@Z 0043f206 f   gamelogic.obj
 0001:0003e238       ?setNextState@GameLogic@Base@@UAEHPAVGameState@2@@Z 0043f238 f   gamelogic.obj
 0001:0003e275       ?resetStates@GameLogic@Base@@UAEHXZ 0043f275 f   gamelogic.obj
 0001:0003e2ac       ?nextState@GameLogic@Base@@UAEHXZ 0043f2ac f   gamelogic.obj
 0001:0003e358       ?destroyStates@GameLogic@Base@@MAEXXZ 0043f358 f   gamelogic.obj
 0001:0003e470       ?setState@GameLogic@Base@@MAEXPAVGameState@2@@Z 0043f470 f   gamelogic.obj
 0001:0003e4e4       ?handlePDU@GameLogic@Base@@IAEHJ@Z 0043f4e4 f   gamelogic.obj
 0001:0003e596       ?HideHand@GameLogic@Base@@SAXH@Z 0043f596 f   gamelogic.obj
 0001:0003e5e3       ?SitOut@GameLogic@Base@@SAXH@Z 0043f5e3 f   gamelogic.obj
 0001:0003e630       ?NewHand@GameLogic@Base@@SAXXZ 0043f630 f   gamelogic.obj
 0001:0003e648       ?CardsDealt@GameLogic@Base@@SAXXZ 0043f648 f   gamelogic.obj
 0001:0003e679       ?IsBringIn@GameLogic@Base@@SAHXZ 0043f679 f   gamelogic.obj
 0001:0003e6cf       ?GetIsBringIn@GameLogic@Base@@SAHXZ 0043f6cf f   gamelogic.obj
 0001:0003e970       ??_EGameLogic@Base@@UAEPAXI@Z 0043f970 f i gamelogic.obj
 0001:0003e970       ??_GGameLogic@Base@@UAEPAXI@Z 0043f970 f i gamelogic.obj
 0001:0003e9c0       ??0?$list@PAVGameState@Base@@V?$allocator@PAVGameState@Base@@@std@@@std@@QAE@ABV?$allocator@PAVGameState@Base@@@1@@Z 0043f9c0 f i gamelogic.obj
 0001:0003ea20       ??1?$list@PAVGameState@Base@@V?$allocator@PAVGameState@Base@@@std@@@std@@QAE@XZ 0043fa20 f i gamelogic.obj
 0001:0003eac0       ?begin@?$list@PAVGameState@Base@@V?$allocator@PAVGameState@Base@@@std@@@std@@QAE?AViterator@12@XZ 0043fac0 f i gamelogic.obj
 0001:0003eb10       ?end@?$list@PAVGameState@Base@@V?$allocator@PAVGameState@Base@@@std@@@std@@QAE?AViterator@12@XZ 0043fb10 f i gamelogic.obj
 0001:0003eb50       ?push_back@?$list@PAVGameState@Base@@V?$allocator@PAVGameState@Base@@@std@@@std@@QAEXABQAVGameState@Base@@@Z 0043fb50 f i gamelogic.obj
 0001:0003ebb0       ?erase@?$list@PAVGameState@Base@@V?$allocator@PAVGameState@Base@@@std@@@std@@QAE?AViterator@12@V312@@Z 0043fbb0 f i gamelogic.obj
 0001:0003ecc0       ?erase@?$list@PAVGameState@Base@@V?$allocator@PAVGameState@Base@@@std@@@std@@QAE?AViterator@12@V312@0@Z 0043fcc0 f i gamelogic.obj
 0001:0003ed50       ??Diterator@?$list@PAVGameState@Base@@V?$allocator@PAVGameState@Base@@@std@@@std@@QBEAAPAVGameState@Base@@XZ 0043fd50 f i gamelogic.obj
 0001:0003ed90       ??Eiterator@?$list@PAVGameState@Base@@V?$allocator@PAVGameState@Base@@@std@@@std@@QAEAAV012@XZ 0043fd90 f i gamelogic.obj
 0001:0003ede0       ??9iterator@?$list@PAVGameState@Base@@V?$allocator@PAVGameState@Base@@@std@@@std@@QBE_NABV012@@Z 0043fde0 f i gamelogic.obj
 0001:0003ee30       ?insert@?$list@PAVGameState@Base@@V?$allocator@PAVGameState@Base@@@std@@@std@@QAE?AViterator@12@V312@ABQAVGameState@Base@@@Z 0043fe30 f i gamelogic.obj
 0001:0003ef30       ?_Buynode@?$list@PAVGameState@Base@@V?$allocator@PAVGameState@Base@@@std@@@std@@IAEPAU_Node@12@PAU312@0@Z 0043ff30 f i gamelogic.obj
 0001:0003efe0       ?_Freenode@?$list@PAVGameState@Base@@V?$allocator@PAVGameState@Base@@@std@@@std@@IAEXPAU_Node@12@@Z 0043ffe0 f i gamelogic.obj
 0001:0003f020       ?_Next@_Acc@?$list@PAVGameState@Base@@V?$allocator@PAVGameState@Base@@@std@@@std@@SAAAPAU_Node@23@PAU423@@Z 00440020 f i gamelogic.obj
 0001:0003f030       ?_Prev@_Acc@?$list@PAVGameState@Base@@V?$allocator@PAVGameState@Base@@@std@@@std@@SAAAPAU_Node@23@PAU423@@Z 00440030 f i gamelogic.obj
 0001:0003f040       ?_Value@_Acc@?$list@PAVGameState@Base@@V?$allocator@PAVGameState@Base@@@std@@@std@@SAAAPAVGameState@Base@@PAU_Node@23@@Z 00440040 f i gamelogic.obj
 0001:0003f050       ?destroy@?$allocator@PAVGameState@Base@@@std@@QAEXPAPAVGameState@Base@@@Z 00440050 f i gamelogic.obj
 0001:0003f090       ?_Mynode@const_iterator@?$list@PAVGameState@Base@@V?$allocator@PAVGameState@Base@@@std@@@std@@QBEPAU_Node@23@XZ 00440090 f i gamelogic.obj
 0001:0003f0b0       ??0iterator@?$list@PAVGameState@Base@@V?$allocator@PAVGameState@Base@@@std@@@std@@QAE@PAU_Node@12@@Z 004400b0 f i gamelogic.obj
 0001:0003f0f0       ??Eiterator@?$list@PAVGameState@Base@@V?$allocator@PAVGameState@Base@@@std@@@std@@QAE?AV012@H@Z 004400f0 f i gamelogic.obj
 0001:0003f150       ??8iterator@?$list@PAVGameState@Base@@V?$allocator@PAVGameState@Base@@@std@@@std@@QBE_NABV012@@Z 00440150 f i gamelogic.obj
 0001:0003f180       ?_Charalloc@?$allocator@PAVGameState@Base@@@std@@QAEPADI@Z 00440180 f i gamelogic.obj
 0001:0003f1c0       ?deallocate@?$allocator@PAVGameState@Base@@@std@@QAEXPAXI@Z 004401c0 f i gamelogic.obj
 0001:0003f200       ?construct@?$allocator@PAVGameState@Base@@@std@@QAEXPAPAVGameState@Base@@ABQAV34@@Z 00440200 f i gamelogic.obj
 0001:0003f240       ??0const_iterator@?$list@PAVGameState@Base@@V?$allocator@PAVGameState@Base@@@std@@@std@@QAE@PAU_Node@12@@Z 00440240 f i gamelogic.obj
 0001:0003f270       ?_Destroy@std@@YAXPAPAVGameState@Base@@@Z 00440270 f i gamelogic.obj
 0001:0003f280       ?_Construct@std@@YAXPAPAVGameState@Base@@ABQAV23@@Z 00440280 f i gamelogic.obj
 0001:0003f2f0       ??0GameState@Base@@QAE@XZ  004402f0 f   gamestate.obj
 0001:0003f30e       ??1GameState@Base@@UAE@XZ  0044030e f   gamestate.obj
 0001:0003f329       ?onCommand@GameState@Base@@UAEHIJ@Z 00440329 f   gamestate.obj
 0001:0003f33f       ?onKey@GameState@Base@@UAEHIII@Z 0044033f f   gamestate.obj
 0001:0003f355       ?onWndMove@GameState@Base@@UAEHHH@Z 00440355 f   gamestate.obj
 0001:0003f36b       ??0AnimateState@Base@@QAE@PAVCView@@@Z 0044036b f   gamestate.obj
 0001:0003f430       ?startAnimate@AnimateState@Base@@IAEXXZ 00440430 f   gamestate.obj
 0001:0003f491       ?stopAnimate@AnimateState@Base@@IAEXXZ 00440491 f   gamestate.obj
 0001:0003f4f2       ?animate@AnimateState@Base@@IAEXABVCPoint@@0@Z 004404f2 f   gamestate.obj
 0001:0003f610       ??_GGameState@Base@@UAEPAXI@Z 00440610 f i gamestate.obj
 0001:0003f610       ??_EGameState@Base@@UAEPAXI@Z 00440610 f i gamestate.obj
 0001:0003f660       ??_GAnimateState@Base@@UAEPAXI@Z 00440660 f i gamestate.obj
 0001:0003f660       ??_EAnimateState@Base@@UAEPAXI@Z 00440660 f i gamestate.obj
 0001:0003f70b       ?Instance@Chips@Base@@SAAAV12@XZ 0044070b f   graphic_chips.obj
 0001:0003f715       ??0Chips@Base@@QAE@XZ      00440715 f   graphic_chips.obj
 0001:0003f85c       ??1Chips@Base@@UAE@XZ      0044085c f   graphic_chips.obj
 0001:0003f987       ?loadChipGraphics@Chips@Base@@QAEHPBDPAVCString@@@Z 00440987 f   graphic_chips.obj
 0001:0003fd43       ?drawChips@Chips@Base@@QAEHPAVCDC@@ABVCChips@@HHK@Z 00440d43 f   graphic_chips.obj
 0001:0004063f       ?getChipsSize@Chips@Base@@QAE?AVCSize@@ABVCChips@@HH@Z 0044163f f   graphic_chips.obj
 0001:00040780       ?getNumChipUnits@Chips@Base@@QAEHABVCChips@@@Z 00441780 f   graphic_chips.obj
 0001:00040950       ?animate@Chips@Base@@QAEHPAVCDC@@ABVCChips@@ABVCPoint@@2@Z 00441950 f   graphic_chips.obj
 0001:000409f2       ?startAnimate@Chips@Base@@QAEHPAVCDC@@ABVCChips@@ABVCPoint@@K@Z 004419f2 f   graphic_chips.obj
 0001:00040b4a       ?stopAnimate@Chips@Base@@QAEHPAVCDC@@ABVCPoint@@K@Z 00441b4a f   graphic_chips.obj
 0001:00040c42       ?bltChips@Chips@Base@@AAEHPAVCDC@@ABVCChips@@IPAVCBitmap@@2HHHHHAAH33AAV3@44@Z 00441c42 f   graphic_chips.obj
 0001:00040e0b       ?sizeChips@Chips@Base@@AAEXABVCChips@@IHHHHHAAH111@Z 00441e0b f   graphic_chips.obj
 0001:00040eb7       ?bltChips@Chips@Base@@AAEHPAVCDC@@HHHHHHAAV3@11@Z 00441eb7 f   graphic_chips.obj
 0001:00040ed0       ?bltChips@Chips@Base@@AAEHPAVCDC@@ABVCChips@@IPAVCBitmap@@HHHHAAHAAV3@44@Z 00441ed0 f   graphic_chips.obj
 0001:00041049       ?createAnimationBuffers@Chips@Base@@AAEHABVCChips@@@Z 00442049 f   graphic_chips.obj
 0001:000412ec       ?getAnimationBufferSize@Chips@Base@@QAE?AVCSize@@XZ 004422ec f   graphic_chips.obj
 0001:00041a80       ??_EChips@Base@@UAEPAXI@Z  00442a80 f i graphic_chips.obj
 0001:00041a80       ??_GChips@Base@@UAEPAXI@Z  00442a80 f i graphic_chips.obj
 0001:00041bb6       ??0JPGImage@Base@@AAE@XZ   00442bb6 f   jpgimage.obj
 0001:00041c78       ??1JPGImage@Base@@QAE@XZ   00442c78 f   jpgimage.obj
 0001:00041d0b       ?LoadImageA@JPGImage@Base@@SAPAV12@PBD@Z 00442d0b f   jpgimage.obj
 0001:0004200d       ?drawImage@JPGImage@Base@@QAEHPAUHDC__@@@Z 0044300d f   jpgimage.obj
 0001:000421f0       ?drawImage@JPGImage@Base@@QAEHPAUHDC__@@ABVCRect@@@Z 004431f0 f   jpgimage.obj
 0001:000423f2       ?getSize@JPGImage@Base@@QBE?AVCSize@@XZ 004433f2 f   jpgimage.obj
 0001:000426d0       ??0JPGImpl@Base@@QAE@XZ    004436d0 f i jpgimage.obj
 0001:00042710       ??_GJPGImpl@Base@@QAEPAXI@Z 00443710 f i jpgimage.obj
 0001:00042760       ??1JPGImpl@Base@@QAE@XZ    00443760 f i jpgimage.obj
 0001:000427a0       ??_GJPGImage@Base@@QAEPAXI@Z 004437a0 f i jpgimage.obj
 0001:000427f0       ?getSize@JPGImpl@Base@@QBE?AVCSize@@XZ 004437f0 f i jpgimage.obj
 0001:00042880       ?drawImage@JPGImpl@Base@@QAEHPAUHDC__@@@Z 00443880 f i jpgimage.obj
 0001:00042b60       ?lowercase@Base@@YAXAAV?$basic_string@DU?$char_traits@D@std@@V?$allocator@D@2@@std@@@Z 00443b60 f   layout.obj
 0001:00042bee       ?MakePoint@Base@@YA?AVCPoint@@ABV?$basic_string@DU?$char_traits@D@std@@V?$allocator@D@2@@std@@@Z 00443bee f   layout.obj
 0001:00042cd7       ?collapse@Base@@YAXAAV?$vector@V?$basic_string@DU?$char_traits@D@std@@V?$allocator@D@2@@std@@V?$allocator@V?$basic_string@DU?$char_traits@D@std@@V?$allocator@D@2@@std@@@2@@std@@@Z 00443cd7 f   layout.obj
 0001:00042e50       ?error@Base@@YA_NPAVCTableView@@ABVCString@@@Z 00443e50 f   layout.obj
 0001:00042e73       ?token_comment@Base@@YA_NAAPBV?$basic_string@DU?$char_traits@D@std@@V?$allocator@D@2@@std@@0PAVCTableView@@@Z 00443e73 f   layout.obj
 0001:00042faa       ?ReadPos@Base@@YA_NAAPBV?$basic_string@DU?$char_traits@D@std@@V?$allocator@D@2@@std@@ABQBV23@AAV23@@Z 00443faa f   layout.obj
 0001:0004310d       ?token_playerpos@Base@@YA_NAAPBV?$basic_string@DU?$char_traits@D@std@@V?$allocator@D@2@@std@@0PAVCTableView@@@Z 0044410d f   layout.obj
 0001:00043556       ?token_chippos@Base@@YA_NAAPBV?$basic_string@DU?$char_traits@D@std@@V?$allocator@D@2@@std@@0PAVCTableView@@@Z 00444556 f   layout.obj
 0001:000438f2       ?token_turnpointer@Base@@YA_NAAPBV?$basic_string@DU?$char_traits@D@std@@V?$allocator@D@2@@std@@0PAVCTableView@@@Z 004448f2 f   layout.obj
 0001:00043e3b       ?token_label@Base@@YA_NAAPBV?$basic_string@DU?$char_traits@D@std@@V?$allocator@D@2@@std@@0PAVCTableView@@@Z 00444e3b f   layout.obj
 0001:0004409c       ?token_background@Base@@YA_NAAPBV?$basic_string@DU?$char_traits@D@std@@V?$allocator@D@2@@std@@0PAVCTableView@@@Z 0044509c f   layout.obj
 0001:000441af       ?token_cardimage@Base@@YA_NAAPBV?$basic_string@DU?$char_traits@D@std@@V?$allocator@D@2@@std@@0PAVCTableView@@@Z 004451af f   layout.obj
 0001:000443c0       ?token_cardbackside@Base@@YA_NAAPBV?$basic_string@DU?$char_traits@D@std@@V?$allocator@D@2@@std@@0PAVCTableView@@@Z 004453c0 f   layout.obj
 0001:000445d1       ?token_text@Base@@YA_NAAPBV?$basic_string@DU?$char_traits@D@std@@V?$allocator@D@2@@std@@0PAVCTableView@@@Z 004455d1 f   layout.obj
 0001:000447bc       ?token_bumptext@Base@@YA_NAAPBV?$basic_string@DU?$char_traits@D@std@@V?$allocator@D@2@@std@@0PAVCTableView@@@Z 004457bc f   layout.obj
 0001:000448e7       ?token_localplayer@Base@@YA_NAAPBV?$basic_string@DU?$char_traits@D@std@@V?$allocator@D@2@@std@@0PAVCTableView@@@Z 004458e7 f   layout.obj
 0001:000449d2       ?token_unknown@Base@@YA_NAAPBV?$basic_string@DU?$char_traits@D@std@@V?$allocator@D@2@@std@@0PAVCTableView@@@Z 004459d2 f   layout.obj
 0001:00044a70       ?token_chatcolor@Base@@YA_NAAPBV?$basic_string@DU?$char_traits@D@std@@V?$allocator@D@2@@std@@0PAVCTableView@@@Z 00445a70 f   layout.obj
 0001:0004513e       ?token_announcement@Base@@YA_NAAPBV?$basic_string@DU?$char_traits@D@std@@V?$allocator@D@2@@std@@0PAVCTableView@@@Z 0044613e f   layout.obj
 0001:0004598e       ?find_handler@Base@@YAP6A_NAAPBV?$basic_string@DU?$char_traits@D@std@@V?$allocator@D@2@@std@@0PAVCTableView@@@ZV23@@Z 0044698e f   layout.obj
 0001:00045a80       ?interpret@Base@@YAXAAV?$vector@V?$basic_string@DU?$char_traits@D@std@@V?$allocator@D@2@@std@@V?$allocator@V?$basic_string@DU?$char_traits@D@std@@V?$allocator@D@2@@std@@@2@@std@@PAVCTableView@@@Z 00446a80 f   layout.obj
 0001:00045b96       ?LoadLayout@Base@@YAXPBDPAVCTableView@@@Z 00446b96 f   layout.obj
 0001:00046ac0       ?setLocalPlayer@CTableView@@QAEXPAVPlayer@Base@@@Z 00447ac0 f i layout.obj
 0001:00046af0       ??0TokenHandler@Base@@QAE@ABV?$basic_string@DU?$char_traits@D@std@@V?$allocator@D@2@@std@@P6A_NAAPBV23@1PAVCTableView@@@Z@Z 00447af0 f i layout.obj
 0001:00046b50       ??1TokenHandler@Base@@QAE@XZ 00447b50 f i layout.obj
 0001:00046b90       ??1?$istream_iterator@V?$basic_string@DU?$char_traits@D@std@@V?$allocator@D@2@@std@@DU?$char_traits@D@2@@std@@QAE@XZ 00447b90 f i layout.obj
 0001:00046bd0       ??0?$vector@V?$basic_string@DU?$char_traits@D@std@@V?$allocator@D@2@@std@@V?$allocator@V?$basic_string@DU?$char_traits@D@std@@V?$allocator@D@2@@std@@@2@@std@@QAE@ABV?$allocator@V?$basic_string@DU?$char_traits@D@std@@V?$allocator@D@2@@std@@@1@@Z 00447bd0 f i layout.obj
 0001:00046c20       ??1?$vector@V?$basic_string@DU?$char_traits@D@std@@V?$allocator@D@2@@std@@V?$allocator@V?$basic_string@DU?$char_traits@D@std@@V?$allocator@D@2@@std@@@2@@std@@QAE@XZ 00447c20 f i layout.obj
 0001:00046cb0       ??4?$vector@V?$basic_string@DU?$char_traits@D@std@@V?$allocator@D@2@@std@@V?$allocator@V?$basic_string@DU?$char_traits@D@std@@V?$allocator@D@2@@std@@@2@@std@@QAEAAV01@ABV01@@Z 00447cb0 f i layout.obj
 0001:00046ed0       ?begin@?$vector@V?$basic_string@DU?$char_traits@D@std@@V?$allocator@D@2@@std@@V?$allocator@V?$basic_string@DU?$char_traits@D@std@@V?$allocator@D@2@@std@@@2@@std@@QAEPAV?$basic_string@DU?$char_traits@D@std@@V?$allocator@D@2@@2@XZ 00447ed0 f i layout.obj
 0001:00046ef0       ?end@?$vector@V?$basic_string@DU?$char_traits@D@std@@V?$allocator@D@2@@std@@V?$allocator@V?$basic_string@DU?$char_traits@D@std@@V?$allocator@D@2@@std@@@2@@std@@QAEPAV?$basic_string@DU?$char_traits@D@std@@V?$allocator@D@2@@2@XZ 00447ef0 f i layout.obj
 0001:00046f10       ?size@?$vector@V?$basic_string@DU?$char_traits@D@std@@V?$allocator@D@2@@std@@V?$allocator@V?$basic_string@DU?$char_traits@D@std@@V?$allocator@D@2@@std@@@2@@std@@QBEIXZ 00447f10 f i layout.obj
 0001:00046f70       ?push_back@?$vector@V?$basic_string@DU?$char_traits@D@std@@V?$allocator@D@2@@std@@V?$allocator@V?$basic_string@DU?$char_traits@D@std@@V?$allocator@D@2@@std@@@2@@std@@QAEXABV?$basic_string@DU?$char_traits@D@std@@V?$allocator@D@2@@2@@Z 00447f70 f i layout.obj
 0001:00046fb0       ??0?$istream_iterator@V?$basic_string@DU?$char_traits@D@std@@V?$allocator@D@2@@std@@DU?$char_traits@D@2@@std@@QAE@XZ 00447fb0 f i layout.obj
 0001:00047010       ??0?$istream_iterator@V?$basic_string@DU?$char_traits@D@std@@V?$allocator@D@2@@std@@DU?$char_traits@D@2@@std@@QAE@AAV?$basic_istream@DU?$char_traits@D@std@@@1@@Z 00448010 f i layout.obj
 0001:000470c0       ?capacity@?$vector@V?$basic_string@DU?$char_traits@D@std@@V?$allocator@D@2@@std@@V?$allocator@V?$basic_string@DU?$char_traits@D@std@@V?$allocator@D@2@@std@@@2@@std@@QBEIXZ 004480c0 f i layout.obj
 0001:00047120       ?begin@?$vector@V?$basic_string@DU?$char_traits@D@std@@V?$allocator@D@2@@std@@V?$allocator@V?$basic_string@DU?$char_traits@D@std@@V?$allocator@D@2@@std@@@2@@std@@QBEPBV?$basic_string@DU?$char_traits@D@std@@V?$allocator@D@2@@2@XZ 00448120 f i layout.obj
 0001:00047140       ?end@?$vector@V?$basic_string@DU?$char_traits@D@std@@V?$allocator@D@2@@std@@V?$allocator@V?$basic_string@DU?$char_traits@D@std@@V?$allocator@D@2@@std@@@2@@std@@QBEPBV?$basic_string@DU?$char_traits@D@std@@V?$allocator@D@2@@2@XZ 00448140 f i layout.obj
 0001:00047160       ?insert@?$vector@V?$basic_string@DU?$char_traits@D@std@@V?$allocator@D@2@@std@@V?$allocator@V?$basic_string@DU?$char_traits@D@std@@V?$allocator@D@2@@std@@@2@@std@@QAEPAV?$basic_string@DU?$char_traits@D@std@@V?$allocator@D@2@@2@PAV32@ABV32@@Z 00448160 f i layout.obj
 0001:000471e0       ?_Destroy@?$vector@V?$basic_string@DU?$char_traits@D@std@@V?$allocator@D@2@@std@@V?$allocator@V?$basic_string@DU?$char_traits@D@std@@V?$allocator@D@2@@std@@@2@@std@@IAEXPAV?$basic_string@DU?$char_traits@D@std@@V?$allocator@D@2@@2@0@Z 004481e0 f i layout.obj
 0001:00047230       ?_Ucopy@?$vector@V?$basic_string@DU?$char_traits@D@std@@V?$allocator@D@2@@std@@V?$allocator@V?$basic_string@DU?$char_traits@D@std@@V?$allocator@D@2@@std@@@2@@std@@IAEPAV?$basic_string@DU?$char_traits@D@std@@V?$allocator@D@2@@2@PBV32@0PAV32@@Z 00448230 f i layout.obj
 0001:000472a0       ?allocate@?$allocator@V?$basic_string@DU?$char_traits@D@std@@V?$allocator@D@2@@std@@@std@@QAEPAV?$basic_string@DU?$char_traits@D@std@@V?$allocator@D@2@@2@IPBX@Z 004482a0 f i layout.obj
 0001:000472e0       ?deallocate@?$allocator@V?$basic_string@DU?$char_traits@D@std@@V?$allocator@D@2@@std@@@std@@QAEXPAXI@Z 004482e0 f i layout.obj
 0001:00047320       ?_Getval@?$istream_iterator@V?$basic_string@DU?$char_traits@D@std@@V?$allocator@D@2@@std@@DU?$char_traits@D@2@@std@@IAEXXZ 00448320 f i layout.obj
 0001:000473b0       ?insert@?$vector@V?$basic_string@DU?$char_traits@D@std@@V?$allocator@D@2@@std@@V?$allocator@V?$basic_string@DU?$char_traits@D@std@@V?$allocator@D@2@@std@@@2@@std@@QAEXPAV?$basic_string@DU?$char_traits@D@std@@V?$allocator@D@2@@2@IABV32@@Z 004483b0 f i layout.obj
 0001:00047690       ?construct@?$allocator@V?$basic_string@DU?$char_traits@D@std@@V?$allocator@D@2@@std@@@std@@QAEXPAV?$basic_string@DU?$char_traits@D@std@@V?$allocator@D@2@@2@ABV32@@Z 00448690 f i layout.obj
 0001:000476d0       ?destroy@?$allocator@V?$basic_string@DU?$char_traits@D@std@@V?$allocator@D@2@@std@@@std@@QAEXPAV?$basic_string@DU?$char_traits@D@std@@V?$allocator@D@2@@2@@Z 004486d0 f i layout.obj
 0001:00047710       ?_Ufill@?$vector@V?$basic_string@DU?$char_traits@D@std@@V?$allocator@D@2@@std@@V?$allocator@V?$basic_string@DU?$char_traits@D@std@@V?$allocator@D@2@@std@@@2@@std@@IAEXPAV?$basic_string@DU?$char_traits@D@std@@V?$allocator@D@2@@2@IABV32@@Z 00448710 f i layout.obj
 0001:00047770       ?back_inserter@std@@YA?AV?$back_insert_iterator@V?$vector@V?$basic_string@DU?$char_traits@D@std@@V?$allocator@D@2@@std@@V?$allocator@V?$basic_string@DU?$char_traits@D@std@@V?$allocator@D@2@@std@@@2@@std@@@1@AAV?$vector@V?$basic_string@DU?$char_traits@D@std@@V?$allocator@D@2@@std@@V?$allocator@V?$basic_string@DU?$char_traits@D@std@@V?$allocator@D@2@@std@@@2@@1@@Z 00448770 f i layout.obj
 0001:000477a0       ?copy@std@@YA?AV?$back_insert_iterator@V?$vector@V?$basic_string@DU?$char_traits@D@std@@V?$allocator@D@2@@std@@V?$allocator@V?$basic_string@DU?$char_traits@D@std@@V?$allocator@D@2@@std@@@2@@std@@@1@V?$istream_iterator@V?$basic_string@DU?$char_traits@D@std@@V?$allocator@D@2@@std@@DU?$char_traits@D@2@@1@0V21@@Z 004487a0 f i layout.obj
 0001:00047870       ?copy@std@@YAPAV?$basic_string@DU?$char_traits@D@std@@V?$allocator@D@2@@1@PBV21@0PAV21@@Z 00448870 f i layout.obj
 0001:000478d0       ?_Allocate@std@@YAPAV?$basic_string@DU?$char_traits@D@std@@V?$allocator@D@2@@1@HPAV21@@Z 004488d0 f i layout.obj
 0001:00047910       ?fill@std@@YAXPAV?$basic_string@DU?$char_traits@D@std@@V?$allocator@D@2@@1@0ABV21@@Z 00448910 f i layout.obj
 0001:00047960       ?copy_backward@std@@YAPAV?$basic_string@DU?$char_traits@D@std@@V?$allocator@D@2@@1@PAV21@00@Z 00448960 f i layout.obj
 0001:000479c0       ?_Construct@std@@YAXPAV?$basic_string@DU?$char_traits@D@std@@V?$allocator@D@2@@1@ABV21@@Z 004489c0 f i layout.obj
 0001:00047a80       ?_Destroy@std@@YAXPAV?$basic_string@DU?$char_traits@D@std@@V?$allocator@D@2@@1@@Z 00448a80 f i layout.obj
 0001:00047aa0       ??_G?$basic_string@DU?$char_traits@D@std@@V?$allocator@D@2@@std@@QAEPAXI@Z 00448aa0 f i layout.obj
 0001:00047b00       ??D?$istream_iterator@V?$basic_string@DU?$char_traits@D@std@@V?$allocator@D@2@@std@@DU?$char_traits@D@2@@std@@QBEABV?$basic_string@DU?$char_traits@D@std@@V?$allocator@D@2@@1@XZ 00448b00 f i layout.obj
 0001:00047b20       ??E?$istream_iterator@V?$basic_string@DU?$char_traits@D@std@@V?$allocator@D@2@@std@@DU?$char_traits@D@2@@std@@QAEAAV01@XZ 00448b20 f i layout.obj
 0001:00047b50       ??0?$back_insert_iterator@V?$vector@V?$basic_string@DU?$char_traits@D@std@@V?$allocator@D@2@@std@@V?$allocator@V?$basic_string@DU?$char_traits@D@std@@V?$allocator@D@2@@std@@@2@@std@@@std@@QAE@AAV?$vector@V?$basic_string@DU?$char_traits@D@std@@V?$allocator@D@2@@std@@V?$allocator@V?$basic_string@DU?$char_traits@D@std@@V?$allocator@D@2@@std@@@2@@1@@Z 00448b50 f i layout.obj
 0001:00047b80       ??4?$back_insert_iterator@V?$vector@V?$basic_string@DU?$char_traits@D@std@@V?$allocator@D@2@@std@@V?$allocator@V?$basic_string@DU?$char_traits@D@std@@V?$allocator@D@2@@std@@@2@@std@@@std@@QAEAAV01@ABV?$basic_string@DU?$char_traits@D@std@@V?$allocator@D@2@@1@@Z 00448b80 f i layout.obj
 0001:00047bc0       ??D?$back_insert_iterator@V?$vector@V?$basic_string@DU?$char_traits@D@std@@V?$allocator@D@2@@std@@V?$allocator@V?$basic_string@DU?$char_traits@D@std@@V?$allocator@D@2@@std@@@2@@std@@@std@@QAEAAV01@XZ 00448bc0 f i layout.obj
 0001:00047be0       ??E?$back_insert_iterator@V?$vector@V?$basic_string@DU?$char_traits@D@std@@V?$allocator@D@2@@std@@V?$allocator@V?$basic_string@DU?$char_traits@D@std@@V?$allocator@D@2@@std@@@2@@std@@@std@@QAEAAV01@XZ 00448be0 f i layout.obj
 0001:00047c00       ??9std@@YA_NABV?$istream_iterator@V?$basic_string@DU?$char_traits@D@std@@V?$allocator@D@2@@std@@DU?$char_traits@D@2@@0@0@Z 00448c00 f i layout.obj
 0001:00047c30       ??8std@@YA_NABV?$istream_iterator@V?$basic_string@DU?$char_traits@D@std@@V?$allocator@D@2@@std@@DU?$char_traits@D@2@@0@0@Z 00448c30 f i layout.obj
 0001:00047c50       ?_Equal@?$istream_iterator@V?$basic_string@DU?$char_traits@D@std@@V?$allocator@D@2@@std@@DU?$char_traits@D@2@@std@@QBE_NABV12@@Z 00448c50 f i layout.obj
 0001:00047c80       ?ComputeMD5Checksum@Base@@YAHPBDPAE@Z 00448c80 f   md5.obj
 0001:00047e10       ?SafeRemove@Base@@YAXPBD@Z 00448e10 f   misc.obj
 0001:00047ec5       ?PointsToPixels@Base@@YAHH@Z 00448ec5 f   misc.obj
 0001:00047f66       ?IsMaximized@Base@@YAHPAVCWnd@@@Z 00448f66 f   misc.obj
 0001:00047fb7       ?GetActiveView@Base@@YAPAVCView@@XZ 00448fb7 f   misc.obj
 0001:00047ffc       ?SanityCheckMinMax@Base@@YAXAAKKK@Z 00448ffc f   misc.obj
 0001:00048058       ?CenterRect@Base@@YAXAAVCRect@@ABV2@K@Z 00449058 f   misc.obj
 0001:00048115       ?SetStatusText@Base@@YAXPAVCWnd@@PBD@Z 00449115 f   misc.obj
 0001:0004817b       ?SuitToChar@Base@@YADW4Suit@1@@Z 0044917b f   misc.obj
 0001:000481fb       ?ValueToChar@Base@@YADH@Z  004491fb f   misc.obj
 0001:00048278       ?AsString@Base@@YA?AVCString@@ABVCard@1@@Z 00449278 f   misc.obj
 0001:0004850b       ??0Player@Base@@QAE@AAUPlayerSlot@@PBDABVCChips@@@Z 0044950b f   player.obj
 0001:000486c7       ??1Player@Base@@UAE@XZ     004496c7 f   player.obj
 0001:0004875c       ?draw@Player@Base@@UBEHPAVCDC@@K@Z 0044975c f   player.obj
 0001:000487ba       ?drawImage@Player@Base@@UBEHPAVCDC@@ABVCPoint@@K@Z 004497ba f   player.obj
 0001:000488ad       ?drawChips@Player@Base@@UAEHPAVCDC@@@Z 004498ad f   player.obj
 0001:00048961       ?setName@Player@Base@@QAEXABVCString@@@Z 00449961 f   player.obj
 0001:00048b12       ?drawLabels@Player@Base@@UBEHPAVCDC@@ABVCPoint@@K@Z 00449b12 f   player.obj
 0001:00049182       ?drawCards@Player@Base@@UBEHPAVCDC@@ABVCPoint@@K@Z 0044a182 f   player.obj
 0001:00049299       ?addCard@Player@Base@@UAEXABVCard@2@W4AddPos@12@@Z 0044a299 f   player.obj
 0001:0004930a       ?setCard@Player@Base@@UAEHHABVCard@2@@Z 0044a30a f   player.obj
 0001:0004940d       ?popCard@Player@Base@@UAEHAAVCard@2@@Z 0044a40d f   player.obj
 0001:000494be       ?removeCard@Player@Base@@UAEHHAAVCard@2@@Z 0044a4be f   player.obj
 0001:00049602       ?getCard@Player@Base@@QAEHHAAVCard@2@@Z 0044a602 f   player.obj
 0001:000496f8       ?empty@Player@Base@@UAEXXZ 0044a6f8 f   player.obj
 0001:0004971f       ?setActionText@Player@Base@@QAEXPBDH@Z 0044a71f f   player.obj
 0001:000497a9       ?getActionTextRect@Player@Base@@QBE?AVCRect@@XZ 0044a7a9 f   player.obj
 0001:00049881       ?getChipsCompartment@Player@Base@@QBE?AVCRect@@XZ 0044a881 f   player.obj
 0001:0004995a       ?numCards@Player@Base@@UBEHXZ 0044a95a f   player.obj
 0001:00049981       ?colorLight@Player@Base@@IBEKXZ 0044a981 f   player.obj
 0001:00049998       ?colorDark@Player@Base@@IBEKXZ 0044a998 f   player.obj
 0001:000499af       ?getClosedCardPos@Player@Base@@QBE?AVCPoint@@H@Z 0044a9af f   player.obj
 0001:00049a2a       ?getCardPos@Player@Base@@UBE?AVCPoint@@H@Z 0044aa2a f   player.obj
 0001:00049af7       ?makeCardPos@Player@Base@@MBE?AVCPoint@@HH@Z 0044aaf7 f   player.obj
 0001:00049bc0       ?getChipStartPos@Player@Base@@UBE?AVCPoint@@XZ 0044abc0 f   player.obj
 0001:00049bef       ?getChipBetPos@Player@Base@@UBE?AVCPoint@@XZ 0044abef f   player.obj
 0001:00049c69       ?getChipsArea@Player@Base@@UBE?AVCRect@@H@Z 0044ac69 f   player.obj
 0001:00049d45       ?getBetChips@Player@Base@@UBE?AVCChips@@XZ 0044ad45 f   player.obj
 0001:00049d75       ?setBetChips@Player@Base@@UAEXABVCChips@@@Z 0044ad75 f   player.obj
 0001:00049e6b       ?invalidateChips@Player@Base@@UAEXXZ 0044ae6b f   player.obj
 0001:00049e7d       ?getCardHitArea@Player@Base@@UBE?AVCRect@@H@Z 0044ae7d f   player.obj
 0001:0004a07f       ?getCardPaintArea@Player@Base@@UBE?AVCRect@@H@Z 0044b07f f   player.obj
 0001:0004a28e       ?getArea@Player@Base@@UBE?AVCRect@@_N@Z 0044b28e f   player.obj
 0001:0004a361       ?getTextArea@Player@Base@@UBE?AVCRect@@XZ 0044b361 f   player.obj
 0001:0004a492       ?getTooltipText@Player@Base@@UBE?AVCString@@ABVCPoint@@@Z 0044b492 f   player.obj
 0001:0004a715       ?resetTooltip@Player@Base@@UBEHABVCPoint@@@Z 0044b715 f   player.obj
 0001:0004a72b       ?computeArea@Player@Base@@QBEXPAVCDC@@@Z 0044b72b f   player.obj
 0001:0004a831       ?firstSelectedCard@Player@Base@@QBEHXZ 0044b831 f   player.obj
 0001:0004a8be       ?lastSelectedCard@Player@Base@@QBEHXZ 0044b8be f   player.obj
 0001:0004a906       ?mouseClick@Player@Base@@UAEXABVCPoint@@@Z 0044b906 f   player.obj
 0001:0004a9f6       ?hitTest@Player@Base@@QBEHHABVCPoint@@@Z 0044b9f6 f   player.obj
 0001:0004aa6e       ?setFolded@Player@Base@@QAEXH@Z 0044ba6e f   player.obj
 0001:0004aaa8       ?setSitIn@Player@Base@@QAEXH@Z 0044baa8 f   player.obj
 0001:0004aae2       ?drawBounds@Player@Base@@IBEHXZ 0044bae2 f   player.obj
 0001:0004ab2f       ?copyDeck@Player@Base@@QAEXAAV?$vector@VCard@Base@@V?$allocator@VCard@Base@@@std@@@std@@@Z 0044bb2f f   player.obj
 0001:0004abbe       ?setDeck@Player@Base@@QAEXABV?$vector@VCard@Base@@V?$allocator@VCard@Base@@@std@@@std@@@Z 0044bbbe f   player.obj
 0001:0004ac3f       ?SetLabelAlpha@Player@Base@@SAXEEEE@Z 0044bc3f f   player.obj
 0001:0004adbd       ?SetTextColor@Player@Base@@SAXEEE@Z 0044bdbd f   player.obj
 0001:0004ae17       ?SetTextDark@Player@Base@@SAXEEE@Z 0044be17 f   player.obj
 0001:0004ae36       ?SetBumpText@Player@Base@@SAXH@Z 0044be36 f   player.obj
 0001:0004ae43       ?SetEdgeLight@Player@Base@@SAXEEE@Z 0044be43 f   player.obj
 0001:0004ae62       ?SetEdgeDark@Player@Base@@SAXEEE@Z 0044be62 f   player.obj
 0001:0004ae81       ?getChips@Player@Base@@UBE?AVCChips@@XZ 0044be81 f   player.obj
 0001:0004aeb1       ?setChips@Player@Base@@UAEXABVCChips@@@Z 0044beb1 f   player.obj
 0001:0004b9c0       ??_GPlayer@Base@@UAEPAXI@Z 0044c9c0 f i player.obj
 0001:0004b9c0       ??_EPlayer@Base@@UAEPAXI@Z 0044c9c0 f i player.obj
 0001:0004ba10       ?getPos@Player@Base@@QBE?AVCPoint@@XZ 0044ca10 f i player.obj
 0001:0004ba50       ??0CardEntry@Player@Base@@QAE@ABVCard@2@@Z 0044ca50 f i player.obj
 0001:0004baa0       ?getHomeCity@Player@Base@@QBE?AVCString@@XZ 0044caa0 f i player.obj
 0001:0004bb00       ??0?$list@UCardEntry@Player@Base@@V?$allocator@UCardEntry@Player@Base@@@std@@@std@@QAE@ABV?$allocator@UCardEntry@Player@Base@@@1@@Z 0044cb00 f i player.obj
 0001:0004bb60       ??1?$list@UCardEntry@Player@Base@@V?$allocator@UCardEntry@Player@Base@@@std@@@std@@QAE@XZ 0044cb60 f i player.obj
 0001:0004bc00       ?begin@?$list@UCardEntry@Player@Base@@V?$allocator@UCardEntry@Player@Base@@@std@@@std@@QAE?AViterator@12@XZ 0044cc00 f i player.obj
 0001:0004bc50       ?end@?$list@UCardEntry@Player@Base@@V?$allocator@UCardEntry@Player@Base@@@std@@@std@@QAE?AViterator@12@XZ 0044cc50 f i player.obj
 0001:0004bc90       ?push_front@?$list@UCardEntry@Player@Base@@V?$allocator@UCardEntry@Player@Base@@@std@@@std@@QAEXABUCardEntry@Player@Base@@@Z 0044cc90 f i player.obj
 0001:0004bcf0       ?push_back@?$list@UCardEntry@Player@Base@@V?$allocator@UCardEntry@Player@Base@@@std@@@std@@QAEXABUCardEntry@Player@Base@@@Z 0044ccf0 f i player.obj
 0001:0004bd50       ?pop_back@?$list@UCardEntry@Player@Base@@V?$allocator@UCardEntry@Player@Base@@@std@@@std@@QAEXXZ 0044cd50 f i player.obj
 0001:0004bdc0       ?erase@?$list@UCardEntry@Player@Base@@V?$allocator@UCardEntry@Player@Base@@@std@@@std@@QAE?AViterator@12@V312@@Z 0044cdc0 f i player.obj
 0001:0004bed0       ?clear@?$list@UCardEntry@Player@Base@@V?$allocator@UCardEntry@Player@Base@@@std@@@std@@QAEXXZ 0044ced0 f i player.obj
 0001:0004bf40       ??0const_iterator@?$list@UCardEntry@Player@Base@@V?$allocator@UCardEntry@Player@Base@@@std@@@std@@QAE@ABViterator@12@@Z 0044cf40 f i player.obj
 0001:0004bf70       ??Diterator@?$list@UCardEntry@Player@Base@@V?$allocator@UCardEntry@Player@Base@@@std@@@std@@QBEAAUCardEntry@Player@Base@@XZ 0044cf70 f i player.obj
 0001:0004bfb0       ??Citerator@?$list@UCardEntry@Player@Base@@V?$allocator@UCardEntry@Player@Base@@@std@@@std@@QBEPAUCardEntry@Player@Base@@XZ 0044cfb0 f i player.obj
 0001:0004bfe0       ??Eiterator@?$list@UCardEntry@Player@Base@@V?$allocator@UCardEntry@Player@Base@@@std@@@std@@QAEAAV012@XZ 0044cfe0 f i player.obj
 0001:0004c030       ??Fiterator@?$list@UCardEntry@Player@Base@@V?$allocator@UCardEntry@Player@Base@@@std@@@std@@QAEAAV012@XZ 0044d030 f i player.obj
 0001:0004c080       ??8iterator@?$list@UCardEntry@Player@Base@@V?$allocator@UCardEntry@Player@Base@@@std@@@std@@QBE_NABV012@@Z 0044d080 f i player.obj
 0001:0004c0b0       ??9iterator@?$list@UCardEntry@Player@Base@@V?$allocator@UCardEntry@Player@Base@@@std@@@std@@QBE_NABV012@@Z 0044d0b0 f i player.obj
 0001:0004c100       ?begin@?$vector@VCard@Base@@V?$allocator@VCard@Base@@@std@@@std@@QBEPBVCard@Base@@XZ 0044d100 f i player.obj
 0001:0004c120       ?end@?$vector@VCard@Base@@V?$allocator@VCard@Base@@@std@@@std@@QBEPBVCard@Base@@XZ 0044d120 f i player.obj
 0001:0004c140       ?push_back@?$vector@VCard@Base@@V?$allocator@VCard@Base@@@std@@@std@@QAEXABVCard@Base@@@Z 0044d140 f i player.obj
 0001:0004c180       ?insert@?$list@UCardEntry@Player@Base@@V?$allocator@UCardEntry@Player@Base@@@std@@@std@@QAE?AViterator@12@V312@ABUCardEntry@Player@Base@@@Z 0044d180 f i player.obj
 0001:0004c280       ?erase@?$list@UCardEntry@Player@Base@@V?$allocator@UCardEntry@Player@Base@@@std@@@std@@QAE?AViterator@12@V312@0@Z 0044d280 f i player.obj
 0001:0004c310       ?_Buynode@?$list@UCardEntry@Player@Base@@V?$allocator@UCardEntry@Player@Base@@@std@@@std@@IAEPAU_Node@12@PAU312@0@Z 0044d310 f i player.obj
 0001:0004c3c0       ?_Freenode@?$list@UCardEntry@Player@Base@@V?$allocator@UCardEntry@Player@Base@@@std@@@std@@IAEXPAU_Node@12@@Z 0044d3c0 f i player.obj
 0001:0004c400       ?_Prev@_Acc@?$list@UCardEntry@Player@Base@@V?$allocator@UCardEntry@Player@Base@@@std@@@std@@SAAAPAU_Node@23@PAU423@@Z 0044d400 f i player.obj
 0001:0004c410       ?destroy@?$allocator@UCardEntry@Player@Base@@@std@@QAEXPAUCardEntry@Player@Base@@@Z 0044d410 f i player.obj
 0001:0004c450       ?_Mynode@const_iterator@?$list@UCardEntry@Player@Base@@V?$allocator@UCardEntry@Player@Base@@@std@@@std@@QBEPAU_Node@23@XZ 0044d450 f i player.obj
 0001:0004c470       ??0iterator@?$list@UCardEntry@Player@Base@@V?$allocator@UCardEntry@Player@Base@@@std@@@std@@QAE@PAU_Node@12@@Z 0044d470 f i player.obj
 0001:0004c4b0       ??Eiterator@?$list@UCardEntry@Player@Base@@V?$allocator@UCardEntry@Player@Base@@@std@@@std@@QAE?AV012@H@Z 0044d4b0 f i player.obj
 0001:0004c510       ?end@?$vector@VCard@Base@@V?$allocator@VCard@Base@@@std@@@std@@QAEPAVCard@Base@@XZ 0044d510 f i player.obj
 0001:0004c530       ?insert@?$vector@VCard@Base@@V?$allocator@VCard@Base@@@std@@@std@@QAEPAVCard@Base@@PAV34@ABV34@@Z 0044d530 f i player.obj
 0001:0004c5a0       ?_Charalloc@?$allocator@UCardEntry@Player@Base@@@std@@QAEPADI@Z 0044d5a0 f i player.obj
 0001:0004c5e0       ?deallocate@?$allocator@UCardEntry@Player@Base@@@std@@QAEXPAXI@Z 0044d5e0 f i player.obj
 0001:0004c620       ?construct@?$allocator@UCardEntry@Player@Base@@@std@@QAEXPAUCardEntry@Player@Base@@ABU345@@Z 0044d620 f i player.obj
 0001:0004c660       ?begin@?$vector@VCard@Base@@V?$allocator@VCard@Base@@@std@@@std@@QAEPAVCard@Base@@XZ 0044d660 f i player.obj
 0001:0004c680       ?insert@?$vector@VCard@Base@@V?$allocator@VCard@Base@@@std@@@std@@QAEXPAVCard@Base@@IABV34@@Z 0044d680 f i player.obj
 0001:0004c940       ?size@?$vector@VCard@Base@@V?$allocator@VCard@Base@@@std@@@std@@QBEIXZ 0044d940 f i player.obj
 0001:0004c9a0       ?_Destroy@?$vector@VCard@Base@@V?$allocator@VCard@Base@@@std@@@std@@IAEXPAVCard@Base@@0@Z 0044d9a0 f i player.obj
 0001:0004c9f0       ?_Ucopy@?$vector@VCard@Base@@V?$allocator@VCard@Base@@@std@@@std@@IAEPAVCard@Base@@PBV34@0PAV34@@Z 0044d9f0 f i player.obj
 0001:0004ca60       ?_Ufill@?$vector@VCard@Base@@V?$allocator@VCard@Base@@@std@@@std@@IAEXPAVCard@Base@@IABV34@@Z 0044da60 f i player.obj
 0001:0004cac0       ?allocate@?$allocator@VCard@Base@@@std@@QAEPAVCard@Base@@IPBX@Z 0044dac0 f i player.obj
 0001:0004cb00       ?deallocate@?$allocator@VCard@Base@@@std@@QAEXPAXI@Z 0044db00 f i player.obj
 0001:0004cb40       ?construct@?$allocator@VCard@Base@@@std@@QAEXPAVCard@Base@@ABV34@@Z 0044db40 f i player.obj
 0001:0004cb80       ?destroy@?$allocator@VCard@Base@@@std@@QAEXPAVCard@Base@@@Z 0044db80 f i player.obj
 0001:0004cbc0       ?_Destroy@std@@YAXPAUCardEntry@Player@Base@@@Z 0044dbc0 f i player.obj
 0001:0004cbd0       ?_Construct@std@@YAXPAUCardEntry@Player@Base@@ABU234@@Z 0044dbd0 f i player.obj
 0001:0004cc80       ??0CardEntry@Player@Base@@QAE@ABU012@@Z 0044dc80 f i player.obj
 0001:0004ccd0       ?fill@std@@YAXPAVCard@Base@@0ABV23@@Z 0044dcd0 f i player.obj
 0001:0004cd10       ?copy_backward@std@@YAPAVCard@Base@@PAV23@00@Z 0044dd10 f i player.obj
 0001:0004cd60       ?_Allocate@std@@YAPAVCard@Base@@HPAV23@@Z 0044dd60 f i player.obj
 0001:0004cda0       ?_Construct@std@@YAXPAVCard@Base@@ABV23@@Z 0044dda0 f i player.obj
 0001:0004ce50       ?_Destroy@std@@YAXPAVCard@Base@@@Z 0044de50 f i player.obj
 0001:0004ce60       ??0StateAnte@Base@@QAE@HABVCChips@@@Z 0044de60 f   stateante.obj
 0001:0004cee8       ??1StateAnte@Base@@UAE@XZ  0044dee8 f   stateante.obj
 0001:0004cf4d       ?tick@StateAnte@Base@@UAEHK@Z 0044df4d f   stateante.obj
 0001:0004cfb1       ?draw@StateAnte@Base@@UAEHPAVCDC@@@Z 0044dfb1 f   stateante.obj
 0001:0004cfc7       ?onCommand@StateAnte@Base@@UAEHIJ@Z 0044dfc7 f   stateante.obj
 0001:0004d040       ??_EStateAnte@Base@@UAEPAXI@Z 0044e040 f i stateante.obj
 0001:0004d040       ??_GStateAnte@Base@@UAEPAXI@Z 0044e040 f i stateante.obj
 0001:0004d090       ??0StateDealCommunity@@QAE@HHHHHHHH@Z 0044e090 f   statedealcommunity.obj
 0001:0004d1c5       ??0StateDealCommunity@@QAE@HPAUCardEntry@Network@@H@Z 0044e1c5 f   statedealcommunity.obj
 0001:0004d2c0       ??1StateDealCommunity@@UAE@XZ 0044e2c0 f   statedealcommunity.obj
 0001:0004d3e6       ?tick@StateDealCommunity@@UAEHK@Z 0044e3e6 f   statedealcommunity.obj
 0001:0004d95c       ?draw@StateDealCommunity@@UAEHPAVCDC@@@Z 0044e95c f   statedealcommunity.obj
 0001:0004d975       ?onCommand@StateDealCommunity@@UAEHIJ@Z 0044e975 f   statedealcommunity.obj
 0001:0004df20       ??_EStateDealCommunity@@UAEPAXI@Z 0044ef20 f i statedealcommunity.obj
 0001:0004df20       ??_GStateDealCommunity@@UAEPAXI@Z 0044ef20 f i statedealcommunity.obj
 0001:0004df70       ??0?$list@VCard@Base@@V?$allocator@VCard@Base@@@std@@@std@@QAE@ABV?$allocator@VCard@Base@@@1@@Z 0044ef70 f i statedealcommunity.obj
 0001:0004dfd0       ??1?$list@VCard@Base@@V?$allocator@VCard@Base@@@std@@@std@@QAE@XZ 0044efd0 f i statedealcommunity.obj
 0001:0004e070       ?size@?$list@VCard@Base@@V?$allocator@VCard@Base@@@std@@@std@@QBEIXZ 0044f070 f i statedealcommunity.obj
 0001:0004e090       ?push_back@?$list@VCard@Base@@V?$allocator@VCard@Base@@@std@@@std@@QAEXABVCard@Base@@@Z 0044f090 f i statedealcommunity.obj
 0001:0004e0f0       ?begin@?$list@VCard@Base@@V?$allocator@VCard@Base@@@std@@@std@@QAE?AViterator@12@XZ 0044f0f0 f i statedealcommunity.obj
 0001:0004e140       ?end@?$list@VCard@Base@@V?$allocator@VCard@Base@@@std@@@std@@QAE?AViterator@12@XZ 0044f140 f i statedealcommunity.obj
 0001:0004e180       ?insert@?$list@VCard@Base@@V?$allocator@VCard@Base@@@std@@@std@@QAE?AViterator@12@V312@ABVCard@Base@@@Z 0044f180 f i statedealcommunity.obj
 0001:0004e280       ?erase@?$list@VCard@Base@@V?$allocator@VCard@Base@@@std@@@std@@QAE?AViterator@12@V312@0@Z 0044f280 f i statedealcommunity.obj
 0001:0004e310       ?_Buynode@?$list@VCard@Base@@V?$allocator@VCard@Base@@@std@@@std@@IAEPAU_Node@12@PAU312@0@Z 0044f310 f i statedealcommunity.obj
 0001:0004e3c0       ?_Freenode@?$list@VCard@Base@@V?$allocator@VCard@Base@@@std@@@std@@IAEXPAU_Node@12@@Z 0044f3c0 f i statedealcommunity.obj
 0001:0004e400       ?erase@?$list@VCard@Base@@V?$allocator@VCard@Base@@@std@@@std@@QAE?AViterator@12@V312@@Z 0044f400 f i statedealcommunity.obj
 0001:0004e510       ?_Next@_Acc@?$list@VCard@Base@@V?$allocator@VCard@Base@@@std@@@std@@SAAAPAU_Node@23@PAU423@@Z 0044f510 f i statedealcommunity.obj
 0001:0004e520       ?_Prev@_Acc@?$list@VCard@Base@@V?$allocator@VCard@Base@@@std@@@std@@SAAAPAU_Node@23@PAU423@@Z 0044f520 f i statedealcommunity.obj
 0001:0004e530       ?_Value@_Acc@?$list@VCard@Base@@V?$allocator@VCard@Base@@@std@@@std@@SAAAVCard@Base@@PAU_Node@23@@Z 0044f530 f i statedealcommunity.obj
 0001:0004e540       ?_Charalloc@?$allocator@VCard@Base@@@std@@QAEPADI@Z 0044f540 f i statedealcommunity.obj
 0001:0004e580       ?_Mynode@const_iterator@?$list@VCard@Base@@V?$allocator@VCard@Base@@@std@@@std@@QBEPAU_Node@23@XZ 0044f580 f i statedealcommunity.obj
 0001:0004e5a0       ??0iterator@?$list@VCard@Base@@V?$allocator@VCard@Base@@@std@@@std@@QAE@PAU_Node@12@@Z 0044f5a0 f i statedealcommunity.obj
 0001:0004e5e0       ??Eiterator@?$list@VCard@Base@@V?$allocator@VCard@Base@@@std@@@std@@QAE?AV012@H@Z 0044f5e0 f i statedealcommunity.obj
 0001:0004e640       ??9iterator@?$list@VCard@Base@@V?$allocator@VCard@Base@@@std@@@std@@QBE_NABV012@@Z 0044f640 f i statedealcommunity.obj
 0001:0004e690       ??0const_iterator@?$list@VCard@Base@@V?$allocator@VCard@Base@@@std@@@std@@QAE@PAU_Node@12@@Z 0044f690 f i statedealcommunity.obj
 0001:0004e6c0       ??Eiterator@?$list@VCard@Base@@V?$allocator@VCard@Base@@@std@@@std@@QAEAAV012@XZ 0044f6c0 f i statedealcommunity.obj
 0001:0004e710       ??8iterator@?$list@VCard@Base@@V?$allocator@VCard@Base@@@std@@@std@@QBE_NABV012@@Z 0044f710 f i statedealcommunity.obj
 0001:0004e740       ?MoveCardToPlayer@@YA?AVCard@Base@@AAV?$list@VCard@Base@@V?$allocator@VCard@Base@@@std@@@std@@PAVPlayer@2@@Z 0044f740 f   statedealpocket2.obj
 0001:0004e7d1       ??0StateDealPocket2@@QAE@HHPAUCardEntry@Network@@H@Z 0044f7d1 f   statedealpocket2.obj
 0001:0004e927       ??0StateDealPocket2@@QAE@HHH@Z 0044f927 f   statedealpocket2.obj
 0001:0004ea2a       ??1StateDealPocket2@@UAE@XZ 0044fa2a f   statedealpocket2.obj
 0001:0004ea8f       ?tick@StateDealPocket2@@UAEHK@Z 0044fa8f f   statedealpocket2.obj
 0001:0004ef99       ?draw@StateDealPocket2@@UAEHPAVCDC@@@Z 0044ff99 f   statedealpocket2.obj
 0001:0004efb2       ?onCommand@StateDealPocket2@@UAEHIJ@Z 0044ffb2 f   statedealpocket2.obj
 0001:0004f0f1       ?finishDealCards@StateDealPocket2@@AAEXXZ 004500f1 f   statedealpocket2.obj
 0001:0004f680       ??_GStateDealPocket2@@UAEPAXI@Z 00450680 f i statedealpocket2.obj
 0001:0004f680       ??_EStateDealPocket2@@UAEPAXI@Z 00450680 f i statedealpocket2.obj
 0001:0004f6d0       ??Diterator@?$list@VCard@Base@@V?$allocator@VCard@Base@@@std@@@std@@QBEAAVCard@Base@@XZ 004506d0 f i statedealpocket2.obj
 0001:0004f710       ??0StateDealUpCard@@QAE@HHPAUCardEntry@Network@@H@Z 00450710 f   statedealupcard.obj
 0001:0004f829       ??1StateDealUpCard@@UAE@XZ 00450829 f   statedealupcard.obj
 0001:0004f88e       ?dealUpCard@StateDealUpCard@@QAEXHHPAUCardEntry@Network@@H@Z 0045088e f   statedealupcard.obj
 0001:0004f95d       ?tick@StateDealUpCard@@UAEHK@Z 0045095d f   statedealupcard.obj
 0001:0004fc5f       ?draw@StateDealUpCard@@UAEHPAVCDC@@@Z 00450c5f f   statedealupcard.obj
 0001:0004fc78       ?onCommand@StateDealUpCard@@UAEHIJ@Z 00450c78 f   statedealupcard.obj
 0001:0004fdb2       ?finishCurrentDeal@StateDealUpCard@@AAEXXZ 00450db2 f   statedealupcard.obj
 0001:00050140       ??_EStateDealUpCard@@UAEPAXI@Z 00451140 f i statedealupcard.obj
 0001:00050140       ??_GStateDealUpCard@@UAEPAXI@Z 00451140 f i statedealupcard.obj
 0001:00050190       ?clear@?$list@VCard@Base@@V?$allocator@VCard@Base@@@std@@@std@@QAEXXZ 00451190 f i statedealupcard.obj
 0001:00050200       ??0StateShowdown@@QAE@HH@Z 00451200 f   stateshowdown.obj
 0001:00050282       ??1StateShowdown@@UAE@XZ   00451282 f   stateshowdown.obj
 0001:00050305       ?tick@StateShowdown@@UAEHK@Z 00451305 f   stateshowdown.obj
 0001:0005036d       ?draw@StateShowdown@@UAEHPAVCDC@@@Z 0045136d f   stateshowdown.obj
 0001:00050383       ?onCommand@StateShowdown@@UAEHIJ@Z 00451383 f   stateshowdown.obj
 0001:00050400       ??_EStateShowdown@@UAEPAXI@Z 00451400 f i stateshowdown.obj
 0001:00050400       ??_GStateShowdown@@UAEPAXI@Z 00451400 f i stateshowdown.obj
 0001:00050450       ?isAnimationOn@CardsAnimate@Base@@QBEHXZ 00451450 f i stateshowdown.obj
 0001:00050480       ??0StateWait@Base@@QAE@XZ  00451480 f   statewait.obj
 0001:0005055e       ??0StateWait@Base@@QAE@PBD@Z 0045155e f   statewait.obj
 0001:00050666       ??1StateWait@Base@@UAE@XZ  00451666 f   statewait.obj
 0001:00050741       ?onWndMove@StateWait@Base@@UAEHHH@Z 00451741 f   statewait.obj
 0001:00050789       ?tick@StateWait@Base@@UAEHK@Z 00451789 f   statewait.obj
 0001:0005079f       ?draw@StateWait@Base@@UAEHPAVCDC@@@Z 0045179f f   statewait.obj
 0001:00050890       ??_GStateWait@Base@@UAEPAXI@Z 00451890 f i statewait.obj
 0001:00050890       ??_EStateWait@Base@@UAEPAXI@Z 00451890 f i statewait.obj
 0001:000508e0       ??0SyncObject@Base@@QAE@XZ 004518e0 f   sync.obj
 0001:00050908       ??1SyncObject@Base@@UAE@XZ 00451908 f   sync.obj
 0001:00050956       ??0Mutex@Base@@QAE@XZ      00451956 f   sync.obj
 0001:000509be       ??1Mutex@Base@@UAE@XZ      004519be f   sync.obj
 0001:00050a3a       ?lock@Mutex@Base@@UAEHK@Z  00451a3a f   sync.obj
 0001:00050a6b       ?unlock@Mutex@Base@@UAEHXZ 00451a6b f   sync.obj
 0001:00050a96       ??0Event@Base@@QAE@XZ      00451a96 f   sync.obj
 0001:00050afe       ??1Event@Base@@UAE@XZ      00451afe f   sync.obj
 0001:00050b7a       ?lock@Event@Base@@UAEHK@Z  00451b7a f   sync.obj
 0001:00050bab       ?unlock@Event@Base@@UAEHXZ 00451bab f   sync.obj
 0001:00050c80       ??_GSyncObject@Base@@UAEPAXI@Z 00451c80 f i sync.obj
 0001:00050c80       ??_ESyncObject@Base@@UAEPAXI@Z 00451c80 f i sync.obj
 0001:00050cd0       ??_GMutex@Base@@UAEPAXI@Z  00451cd0 f i sync.obj
 0001:00050cd0       ??_EMutex@Base@@UAEPAXI@Z  00451cd0 f i sync.obj
 0001:00050d20       ??_EEvent@Base@@UAEPAXI@Z  00451d20 f i sync.obj
 0001:00050d20       ??_GEvent@Base@@UAEPAXI@Z  00451d20 f i sync.obj
 0001:00050d70       ?TransBlt@TransparentBitmap@Base@@QAEHPAVCDC@@HHK@Z 00451d70 f   transparentbitmap.obj
 0001:00051090       ??0TurnIndicator@Base@@QAE@XZ 00452090 f   turnindicator.obj
 0001:00051157       ??1TurnIndicator@Base@@QAE@XZ 00452157 f   turnindicator.obj
 0001:000511b6       ?tick@TurnIndicator@Base@@QAEXK@Z 004521b6 f   turnindicator.obj
 0001:0005128a       ?draw@TurnIndicator@Base@@QAEXPAVCDC@@@Z 0045228a f   turnindicator.obj
 0001:00051389       ?setTurn@TurnIndicator@Base@@QAEXHK@Z 00452389 f   turnindicator.obj
 0001:000513fe       ?endTurn@TurnIndicator@Base@@QAEXXZ 004523fe f   turnindicator.obj
 0001:000514a5       ?getPointerArea@TurnIndicator@Base@@QBE?AVCRect@@H@Z 004524a5 f   turnindicator.obj
 0001:000516f3       ?loadPointerBitmap@TurnIndicator@Base@@QAEXH@Z 004526f3 f   turnindicator.obj
 0001:00051ab0       ??0TransparentBitmap@Base@@QAE@XZ 00452ab0 f i turnindicator.obj
 0001:00051b40       ?LoadBitmapA@TransparentBitmap@Base@@QAEHII@Z 00452b40 f i turnindicator.obj
 0001:00051c10       ?GetBitmap@TransparentBitmap@Base@@QAEHPAUtagBITMAP@@@Z 00452c10 f i turnindicator.obj
 0001:00051c50       ??1TransparentBitmap@Base@@QAE@XZ 00452c50 f i turnindicator.obj
 0001:00051cd0       ?GetSize@TransparentBitmap@Base@@QBE?AVCSize@@XZ 00452cd0 f i turnindicator.obj
 0001:00051d10       ?DeleteObject@TransparentBitmap@Base@@QAEXXZ 00452d10 f i turnindicator.obj
 0001:00051d70       ?Sys_CreateThread@@YAHP6AXPAX@Z0@Z 00452d70 f   winsys.obj
 0001:00051d9a       ?Sys_EndThread@@YAXXZ      00452d9a f   winsys.obj
 0001:00051db7       ?Sys_CreateEvent@@YAPAXXZ  00452db7 f   winsys.obj
 0001:00051ddc       ?Sys_WaitEvent@@YAHPAXK@Z  00452ddc f   winsys.obj
 0001:00051df8       ?Sys_SetEvent@@YAHPAX@Z    00452df8 f   winsys.obj
 0001:00051e19       ?Sys_PulseEvent@@YAHPAX@Z  00452e19 f   winsys.obj
 0001:00051e3a       ?Sys_ResetEvent@@YAHPAX@Z  00452e3a f   winsys.obj
 0001:00051e5b       ?Sys_DestroyEvent@@YAXPAX@Z 00452e5b f   winsys.obj
 0001:00051e7c       ?Sys_CreateMutex@@YAPAXXZ  00452e7c f   winsys.obj
 0001:00051e9f       ?Sys_LockMutex@@YAHPAXK@Z  00452e9f f   winsys.obj
 0001:00051ed1       ?Sys_ReleaseMutex@@YAHPAX@Z 00452ed1 f   winsys.obj
 0001:00051ef2       ?Sys_DestroyMutex@@YAHPAX@Z 00452ef2 f   winsys.obj
 0001:00051f13       ?Sys_Sleep@@YAXK@Z         00452f13 f   winsys.obj
 0001:00051f34       ?Sys_GetTicks@@YAKXZ       00452f34 f   winsys.obj
 0001:00051fd0       ??0CDib@@QAE@XZ            00452fd0 f   CDib.obj
 0001:00052027       ??1CDib@@QAE@XZ            00453027 f   CDib.obj
 0001:0005204b       ?Create@CDib@@QAEHHH@Z     0045304b f   CDib.obj
 0001:00052125       ?Create@CDib@@QAEHVCString@@@Z 00453125 f   CDib.obj
 0001:0005223b       ?Destroy@CDib@@QAEXXZ      0045323b f   CDib.obj
 0001:000522b0       ?Fill@CDib@@QAEXEEE@Z      004532b0 f   CDib.obj
 0001:00052310       ?FillGlass@CDib@@QAEXEEEE@Z 00453310 f   CDib.obj
 0001:0005240b       ?FillGlass50@CDib@@QAEXEEE@Z 0045340b f   CDib.obj
 0001:000524ae       ?FillGlassStippled50@CDib@@QAEXEEE@Z 004534ae f   CDib.obj
 0001:00052567       ?FillRect@CDib@@QAEXHHHHEEE@Z 00453567 f   CDib.obj
 0001:00052629       ?FillGlassRect@CDib@@QAEXHHHHEEEE@Z 00453629 f   CDib.obj
 0001:00052783       ?FillGlass50Rect@CDib@@QAEXHHHHEEE@Z 00453783 f   CDib.obj
 0001:0005287e       ?FillGlassStippled50Rect@CDib@@QAEXHHHHEEE@Z 0045387e f   CDib.obj
 0001:0005296f       ?CopyToBitmap@CDib@@QAEXPAVCDC@@PAVCBitmap@@@Z 0045396f f   CDib.obj
 0001:000529c4       ?CopyFromBitmap@CDib@@QAEXPAVCDC@@PAVCBitmap@@@Z 004539c4 f   CDib.obj
 0001:00052a19       ?CopyToDCRect@CDib@@QAEXPAVCDC@@HH@Z 00453a19 f   CDib.obj
 0001:00052a7f       ?CopyFromDCRect@CDib@@QAEXPAVCDC@@HHHH@Z 00453a7f f   CDib.obj
 0001:00052be6       ?CopyToDib@CDib@@QAEXPAV1@@Z 00453be6 f   CDib.obj
 0001:00052c58       ?CopyFromDib@CDib@@QAEXPAV1@@Z 00453c58 f   CDib.obj
 0001:00052cca       ?CopyFromDibCK@CDib@@QAEXPAV1@EEE@Z 00453cca f   CDib.obj
 0001:00052d61       ?CopyFromDibAlpha@CDib@@QAEXPAV1@@Z 00453d61 f   CDib.obj
 0001:00052dd2       ?AddDib@CDib@@QAEXPAV1@@Z  00453dd2 f   CDib.obj
 0001:00052f4e       ?BlendDib@CDib@@QAEXPAV1@E@Z 00453f4e f   CDib.obj
 0001:0005308c       ?Blend50Dib@CDib@@QAEXPAV1@@Z 0045408c f   CDib.obj
 0001:0005314c       ?DarkenDib@CDib@@QAEXPAV1@@Z 0045414c f   CDib.obj
 0001:00053248       ?DifferenceDib@CDib@@QAEXPAV1@@Z 00454248 f   CDib.obj
 0001:000533a3       ?LightenDib@CDib@@QAEXPAV1@@Z 004543a3 f   CDib.obj
 0001:0005349f       ?MultiplyDib@CDib@@QAEXPAV1@@Z 0045449f f   CDib.obj
 0001:00053590       ?ScreenDib@CDib@@QAEXPAV1@@Z 00454590 f   CDib.obj
 0001:000536c7       ?CopyToDibRect@CDib@@QAEXPAV1@HH@Z 004546c7 f   CDib.obj
 0001:000537c7       ?CopyFromDibRect@CDib@@QAEXPAV1@HH@Z 004547c7 f   CDib.obj
 0001:000538bb       ?CopyToDibRectCK@CDib@@QAEXPAV1@HHEEE@Z 004548bb f   CDib.obj
 0001:000539e9       ?CopyFromDibRectCK@CDib@@QAEXPAV1@HHEEE@Z 004549e9 f   CDib.obj
 0001:00053b0b       ?CopyFromDibRectAlpha@CDib@@QAEXPAV1@HH@Z 00454b0b f   CDib.obj
 0001:00053cc3       ?CopyStretchedFromDibRect@CDib@@QAEXPAV1@HHHH@Z 00454cc3 f   CDib.obj
 0001:00053e0f       ?AddDibRect@CDib@@QAEXPAV1@HH@Z 00454e0f f   CDib.obj
 0001:00053ffb       ?BlendDibRect@CDib@@QAEXPAV1@HHE@Z 00454ffb f   CDib.obj
 0001:000541b5       ?Blend50DibRect@CDib@@QAEXPAV1@HH@Z 004551b5 f   CDib.obj
 0001:000542ee       ?DarkenDibRect@CDib@@QAEXPAV1@HH@Z 004552ee f   CDib.obj
 0001:00054469       ?DifferenceDibRect@CDib@@QAEXPAV1@HH@Z 00455469 f   CDib.obj
 0001:00054634       ?LightenDibRect@CDib@@QAEXPAV1@HH@Z 00455634 f   CDib.obj
 0001:000547af       ?MultiplyDibRect@CDib@@QAEXPAV1@HH@Z 004557af f   CDib.obj
 0001:0005491c       ?ScreenDibRect@CDib@@QAEXPAV1@HH@Z 0045591c f   CDib.obj
 0001:00054acf       ?HLine@CDib@@QAEXHHHEEE@Z  00455acf f   CDib.obj
 0001:00054b3b       ?ClippedHLine@CDib@@QAEXHHHEEE@Z 00455b3b f   CDib.obj
 0001:00054bc1       ?VLine@CDib@@QAEXHHHEEE@Z  00455bc1 f   CDib.obj
 0001:00054c67       ?ClippedVLine@CDib@@QAEXHHHEEE@Z 00455c67 f   CDib.obj
 0001:00054d27       ?Line@CDib@@QAEXHHHHEEE@Z  00455d27 f   CDib.obj
 0001:00054e9e       ?LineGlass@CDib@@QAEXHHHHEEEE@Z 00455e9e f   CDib.obj
 0001:00055234       ?ClippedLine@CDib@@QAEXHHHHEEE@Z 00456234 f   CDib.obj
 0001:00056430       ?DWSet@@YAXPAXKK@Z         00457430 f i CDib.obj
 0001:00056460       ?ClipXYWH@CDib@@QAEHAAH000@Z 00457460 f i CDib.obj
 0001:00056560       ?CheckWH@CDib@@QAEHHH@Z    00457560 f i CDib.obj
 0001:000565c0       ?CheckWH@CDib@@QAEHPAV1@@Z 004575c0 f i CDib.obj
 0001:00056620       ?DWCopy@@YAXPAXPBXK@Z      00457620 f i CDib.obj
 0001:00056650       ?DWCopyCK@@YAXPAXPBXKK@Z   00457650 f i CDib.obj
 0001:000566a0       ?ClipX1YX2@CDib@@QAEHAAH00@Z 004576a0 f i CDib.obj
 0001:00056750       ?IsValidY@CDib@@QAEHH@Z    00457750 f i CDib.obj
 0001:000567b0       ?ClipXY1Y2@CDib@@QAEHAAH00@Z 004577b0 f i CDib.obj
 0001:00056860       ?IsValidX@CDib@@QAEHH@Z    00457860 f i CDib.obj
 0001:000568c0       ??0CDibFileHandlerTarga@@QAE@XZ 004578c0 f   Dib File Handler Targa.obj
 0001:000568f0       ??1CDibFileHandlerTarga@@UAE@XZ 004578f0 f   Dib File Handler Targa.obj
 0001:0005691d       ?Open@CDibFileHandlerTarga@@UAEHPAVCDib@@VCString@@@Z 0045791d f   Dib File Handler Targa.obj
 0001:00056d2e       ?Save@CDibFileHandlerTarga@@UAEHPAVCDib@@VCString@@@Z 00457d2e f   Dib File Handler Targa.obj
 0001:00056e90       ??_GCDibFileHandlerTarga@@UAEPAXI@Z 00457e90 f i Dib File Handler Targa.obj
 0001:00056e90       ??_ECDibFileHandlerTarga@@UAEPAXI@Z 00457e90 f i Dib File Handler Targa.obj
 0001:00056ee0       ??0CDibFileHandler@@QAE@XZ 00457ee0 f   Dib File Handler.obj
 0001:00056efe       ??1CDibFileHandler@@UAE@XZ 00457efe f   Dib File Handler.obj
 0001:00056f19       ?Open@CDibFileHandler@@UAEHPAVCDib@@VCString@@@Z 00457f19 f   Dib File Handler.obj
 0001:00056f52       ?Save@CDibFileHandler@@UAEHPAVCDib@@VCString@@@Z 00457f52 f   Dib File Handler.obj
 0001:00056fc0       ??_GCDibFileHandler@@UAEPAXI@Z 00457fc0 f i Dib File Handler.obj
 0001:00056fc0       ??_ECDibFileHandler@@UAEPAXI@Z 00457fc0 f i Dib File Handler.obj
 0001:00057010       ??0CAboutDlg@@QAE@XZ       00458010 f   aboutdlg.obj
 0001:0005709a       ?DoDataExchange@CAboutDlg@@MAEXPAVCDataExchange@@@Z 0045809a f   aboutdlg.obj
 0001:000570c4       ?_GetBaseMessageMap@CAboutDlg@@KGPBUAFX_MSGMAP@@XZ 004580c4 f   aboutdlg.obj
 0001:000570ce       ?GetMessageMap@CAboutDlg@@MBEPBUAFX_MSGMAP@@XZ 004580ce f   aboutdlg.obj
 0001:000570e5       ?OnEraseBkgnd@CAboutDlg@@IAEHPAVCDC@@@Z 004580e5 f   aboutdlg.obj
 0001:0005710f       ?OnPaint@CAboutDlg@@IAEXXZ 0045810f f   aboutdlg.obj
 0001:00057360       ??_ECAboutDlg@@UAEPAXI@Z   00458360 f i aboutdlg.obj
 0001:00057360       ??_GCAboutDlg@@UAEPAXI@Z   00458360 f i aboutdlg.obj
 0001:000573b0       ??1CAboutDlg@@UAE@XZ       004583b0 f i aboutdlg.obj
 0001:00057450       ?IsPromptingForBetAction@?%C:\Documents and Settings\administrator\Desktop\poker_source\client\ui\actionbar.cpp1983117069@@YAHXZ 00458450 f   actionbar.obj
 0001:0005749f       ?GetPayAmount@?%C:\Documents and Settings\administrator\Desktop\poker_source\client\ui\actionbar.cpp1983117069@@YAHXZ 0045849f f   actionbar.obj
 0001:000574ee       ?TournamentTest@?%C:\Documents and Settings\administrator\Desktop\poker_source\client\ui\actionbar.cpp1983117069@@YAHXZ 004584ee f   actionbar.obj
 0001:0005751e       ??0CActionBar@@QAE@XZ      0045851e f   actionbar.obj
 0001:00057614       ??1CActionBar@@UAE@XZ      00458614 f   actionbar.obj
 0001:000576cd       ?Create@CActionBar@@QAEHPAVCWnd@@@Z 004586cd f   actionbar.obj
 0001:000579b2       ?DoDataExchange@CActionBar@@MAEXPAVCDataExchange@@@Z 004589b2 f   actionbar.obj
 0001:000579dc       ?_GetBaseMessageMap@CActionBar@@KGPBUAFX_MSGMAP@@XZ 004589dc f   actionbar.obj
 0001:000579e6       ?GetMessageMap@CActionBar@@MBEPBUAFX_MSGMAP@@XZ 004589e6 f   actionbar.obj
 0001:000579fd       ?OnCommand@CActionBar@@MAEHIJ@Z 004589fd f   actionbar.obj
 0001:00057aa6       ?OnClose@CActionBar@@IAEXXZ 00458aa6 f   actionbar.obj
 0001:00057ae6       ?SafeDisable@@YAXPAVCDialog@@I@Z 00458ae6 f   actionbar.obj
 0001:00057b17       ?OnInitDialog@CActionBar@@MAEHXZ 00458b17 f   actionbar.obj
 0001:00057c2c       ?ResetAnteCheckbox@CActionBar@@SAXXZ 00458c2c f   actionbar.obj
 0001:00057c9b       ?OnContextMenu@CActionBar@@IAEXPAVCWnd@@VCPoint@@@Z 00458c9b f   actionbar.obj
 0001:00057caf       ?OnToolTipNotify@CActionBar@@IAEHIPAUtagNMHDR@@PAJ@Z 00458caf f   actionbar.obj
 0001:00057e9f       ?OnCheckFold@CActionBar@@IAEXXZ 00458e9f f   actionbar.obj
 0001:00057fe1       ?OnCheckCall@CActionBar@@IAEXXZ 00458fe1 f   actionbar.obj
 0001:00058104       ?OnCheckRaise@CActionBar@@IAEXXZ 00459104 f   actionbar.obj
 0001:00058227       ?OnCheckPostblind@CActionBar@@IAEXXZ 00459227 f   actionbar.obj
 0001:000582e3       ?OnCheckSitout@CActionBar@@IAEXXZ 004592e3 f   actionbar.obj
 0001:000583fe       ?OnCheckMuckHand@CActionBar@@IAEXXZ 004593fe f   actionbar.obj
 0001:0005845b       ?enableButtons@CActionBar@@QAEXK@Z 0045945b f   actionbar.obj
 0001:0005860e       ?setSpread@CActionBar@@QAEXABVCChips@@0@Z 0045960e f   actionbar.obj
 0001:00058754       ?getRaise@CActionBar@@QBE?AVCChips@@XZ 00459754 f   actionbar.obj
 0001:00058815       ?enableCheckBoxes@CActionBar@@QAEXH@Z 00459815 f   actionbar.obj
 0001:0005899c       ?ShowToolTips@CActionBar@@SAXH@Z 0045999c f   actionbar.obj
 0001:000589a9       ?animate@CActionBar@@QAEXK@Z 004599a9 f   actionbar.obj
 0001:00058a6f       ?stopAnimate@CActionBar@@QAEXXZ 00459a6f f   actionbar.obj
 0001:00058ad6       ?setButtonText@CActionBar@@QAEXHABVCString@@@Z 00459ad6 f   actionbar.obj
 0001:00058b69       ?isChecked@CActionBar@@AAEHI@Z 00459b69 f   actionbar.obj
 0001:00058bd4       ?OnCtlColor@CActionBar@@IAEPAUHBRUSH__@@PAVCDC@@PAVCWnd@@I@Z 00459bd4 f   actionbar.obj
 0001:00058c06       ?resetCheckStates@CActionBar@@QAEXXZ 00459c06 f   actionbar.obj
 0001:00058c8a       ?dock@CActionBar@@QAEXH@Z  00459c8a f   actionbar.obj
 0001:00058e17       ?isDocked@CActionBar@@QBEHXZ 00459e17 f   actionbar.obj
 0001:00058e54       ?attach@CActionBar@@QAEXXZ 00459e54 f   actionbar.obj
 0001:00058f44       ?saveWidth@CActionBar@@QAEXXZ 00459f44 f   actionbar.obj
 0001:00058f97       ?getMinWidth@CActionBar@@QBEHXZ 00459f97 f   actionbar.obj
 0001:00058fb2       ?OnSize@CActionBar@@IAEXIHH@Z 00459fb2 f   actionbar.obj
 0001:00059254       ?UncheckActionButtons@CActionBar@@SAXXZ 0045a254 f   actionbar.obj
 0001:0005928e       ?uncheckActionButtons@CActionBar@@QAEXXZ 0045a28e f   actionbar.obj
 0001:000592fa       ?UncheckCallButton@CActionBar@@SAXXZ 0045a2fa f   actionbar.obj
 0001:00059334       ?UncheckRaiseButton@CActionBar@@SAXXZ 0045a334 f   actionbar.obj
 0001:0005936e       ?UncheckFoldButton@CActionBar@@SAXXZ 0045a36e f   actionbar.obj
 0001:000593a8       ?uncheckCallButton@CActionBar@@QAEXXZ 0045a3a8 f   actionbar.obj
 0001:000593e4       ?uncheckRaiseButton@CActionBar@@QAEXXZ 0045a3e4 f   actionbar.obj
 0001:00059420       ?uncheckFoldButton@CActionBar@@QAEXXZ 0045a420 f   actionbar.obj
 0001:0005945c       ?updateButtons@CActionBar@@QAEXXZ 0045a45c f   actionbar.obj
 0001:00059513       ?CheckSitOut@CActionBar@@SAXH@Z 0045a513 f   actionbar.obj
 0001:00059567       ?checkSitOut@CActionBar@@QAEXH@Z 0045a567 f   actionbar.obj
 0001:000595e6       ?OnHScroll@CActionBar@@IAEXIIPAVCScrollBar@@@Z 0045a5e6 f   actionbar.obj
 0001:00059765       ?OnChangeRaiseamount@CActionBar@@IAEXXZ 0045a765 f   actionbar.obj
 0001:000598d5       ?setTournament@CActionBar@@QAEXXZ 0045a8d5 f   actionbar.obj
 0001:0005a250       ??_ECActionBar@@UAEPAXI@Z  0045b250 f i actionbar.obj
 0001:0005a250       ??_GCActionBar@@UAEPAXI@Z  0045b250 f i actionbar.obj
 0001:0005a2a0       ??1CCheckButton@@UAE@XZ    0045b2a0 f i actionbar.obj
 0001:0005a2d0       ?setChecked@CCheckButton@@QAEXH@Z 0045b2d0 f i actionbar.obj
 0001:0005a300       ?CallInTurn@GameLogic@Base@@SAXH@Z 0045b300 f i actionbar.obj
 0001:0005a320       ?FoldInTurn@GameLogic@Base@@SAXH@Z 0045b320 f i actionbar.obj
 0001:0005a340       ?RaiseInTurn@GameLogic@Base@@SAXH@Z 0045b340 f i actionbar.obj
 0001:0005a360       ?AutoPostBlind@GameLogic@Base@@SAXH@Z 0045b360 f i actionbar.obj
 0001:0005a380       ?TakeFocusOnRequest@GameLogic@Base@@SAHXZ 0045b380 f i actionbar.obj
 0001:0005a3a0       ?setHighLight@CActionButton@@QAEXH@Z 0045b3a0 f i actionbar.obj
 0001:0005a3d0       ?getHighLight@CActionButton@@QBEHXZ 0045b3d0 f i actionbar.obj
 0001:0005a3f0       ?isChecked@CCheckButton@@QBEHXZ 0045b3f0 f i actionbar.obj
 0001:0005a578       ??0CActionButton@@QAE@XZ   0045b578 f   ActionButton.obj
 0001:0005a6af       ??1CActionButton@@UAE@XZ   0045b6af f   ActionButton.obj
 0001:0005a6dc       ?_GetBaseMessageMap@CActionButton@@KGPBUAFX_MSGMAP@@XZ 0045b6dc f   ActionButton.obj
 0001:0005a6e6       ?GetMessageMap@CActionButton@@MBEPBUAFX_MSGMAP@@XZ 0045b6e6 f   ActionButton.obj
 0001:0005a6fd       ?DrawItem@CActionButton@@UAEXPAUtagDRAWITEMSTRUCT@@@Z 0045b6fd f   ActionButton.obj
 0001:0005aa33       ?OnMeasureItem@CActionButton@@IAEXHPAUtagMEASUREITEMSTRUCT@@@Z 0045ba33 f   ActionButton.obj
 0001:0005ac50       ??_GCActionButton@@UAEPAXI@Z 0045bc50 f i ActionButton.obj
 0001:0005ac50       ??_ECActionButton@@UAEPAXI@Z 0045bc50 f i ActionButton.obj
 0001:0005ad67       ?GetLeftRect@?%C:\Documents and Settings\administrator\Desktop\poker_source\client\ui\animatewinner.cpp2447627265@@YA?AVCRect@@ABV2@ABVCSize@@@Z 0045bd67 f   animatewinner.obj
 0001:0005ae3a       ?GetRightRect@?%C:\Documents and Settings\administrator\Desktop\poker_source\client\ui\animatewinner.cpp2447627265@@YA?AVCRect@@ABV2@ABVCSize@@@Z 0045be3a f   animatewinner.obj
 0001:0005af04       ?AnimProc@?%C:\Documents and Settings\administrator\Desktop\poker_source\client\ui\animatewinner.cpp2447627265@@YGXPAUHWND__@@IIK@Z 0045bf04 f   animatewinner.obj
 0001:0005b2e9       ?StartAnimate@AnimateWinner@@YAHPAVCWnd@@ABVCRect@@I@Z 0045c2e9 f   animatewinner.obj
 0001:0005b40d       ?StopAnimate@AnimateWinner@@YAHXZ 0045c40d f   animatewinner.obj
 0001:0005b610       ?GetSafeHandle@TransparentBitmap@Base@@QBEPAUHBITMAP__@@XZ 0045c610 f i animatewinner.obj
 0001:0005b640       ??0Winner@@QAE@ABVCRect@@@Z 0045c640 f i animatewinner.obj
 0001:0005b680       ??0?$list@UWinner@@V?$allocator@UWinner@@@std@@@std@@QAE@ABV?$allocator@UWinner@@@1@@Z 0045c680 f i animatewinner.obj
 0001:0005b6e0       ??1?$list@UWinner@@V?$allocator@UWinner@@@std@@@std@@QAE@XZ 0045c6e0 f i animatewinner.obj
 0001:0005b780       ?begin@?$list@UWinner@@V?$allocator@UWinner@@@std@@@std@@QAE?AViterator@12@XZ 0045c780 f i animatewinner.obj
 0001:0005b7d0       ?end@?$list@UWinner@@V?$allocator@UWinner@@@std@@@std@@QAE?AViterator@12@XZ 0045c7d0 f i animatewinner.obj
 0001:0005b810       ?push_back@?$list@UWinner@@V?$allocator@UWinner@@@std@@@std@@QAEXABUWinner@@@Z 0045c810 f i animatewinner.obj
 0001:0005b870       ?clear@?$list@UWinner@@V?$allocator@UWinner@@@std@@@std@@QAEXXZ 0045c870 f i animatewinner.obj
 0001:0005b8e0       ??Diterator@?$list@UWinner@@V?$allocator@UWinner@@@std@@@std@@QBEAAUWinner@@XZ 0045c8e0 f i animatewinner.obj
 0001:0005b920       ??Eiterator@?$list@UWinner@@V?$allocator@UWinner@@@std@@@std@@QAEAAV012@XZ 0045c920 f i animatewinner.obj
 0001:0005b970       ??9iterator@?$list@UWinner@@V?$allocator@UWinner@@@std@@@std@@QBE_NABV012@@Z 0045c970 f i animatewinner.obj
 0001:0005b9c0       ?insert@?$list@UWinner@@V?$allocator@UWinner@@@std@@@std@@QAE?AViterator@12@V312@ABUWinner@@@Z 0045c9c0 f i animatewinner.obj
 0001:0005bac0       ?erase@?$list@UWinner@@V?$allocator@UWinner@@@std@@@std@@QAE?AViterator@12@V312@0@Z 0045cac0 f i animatewinner.obj
 0001:0005bb50       ?_Buynode@?$list@UWinner@@V?$allocator@UWinner@@@std@@@std@@IAEPAU_Node@12@PAU312@0@Z 0045cb50 f i animatewinner.obj
 0001:0005bc00       ?_Freenode@?$list@UWinner@@V?$allocator@UWinner@@@std@@@std@@IAEXPAU_Node@12@@Z 0045cc00 f i animatewinner.obj
 0001:0005bc40       ?_Next@_Acc@?$list@UWinner@@V?$allocator@UWinner@@@std@@@std@@SAAAPAU_Node@23@PAU423@@Z 0045cc40 f i animatewinner.obj
 0001:0005bc50       ?_Value@_Acc@?$list@UWinner@@V?$allocator@UWinner@@@std@@@std@@SAAAUWinner@@PAU_Node@23@@Z 0045cc50 f i animatewinner.obj
 0001:0005bc60       ??0iterator@?$list@UWinner@@V?$allocator@UWinner@@@std@@@std@@QAE@PAU_Node@12@@Z 0045cc60 f i animatewinner.obj
 0001:0005bca0       ??8iterator@?$list@UWinner@@V?$allocator@UWinner@@@std@@@std@@QBE_NABV012@@Z 0045cca0 f i animatewinner.obj
 0001:0005bcd0       ?erase@?$list@UWinner@@V?$allocator@UWinner@@@std@@@std@@QAE?AViterator@12@V312@@Z 0045ccd0 f i animatewinner.obj
 0001:0005bde0       ?_Prev@_Acc@?$list@UWinner@@V?$allocator@UWinner@@@std@@@std@@SAAAPAU_Node@23@PAU423@@Z 0045cde0 f i animatewinner.obj
 0001:0005bdf0       ?_Charalloc@?$allocator@UWinner@@@std@@QAEPADI@Z 0045cdf0 f i animatewinner.obj
 0001:0005be30       ?deallocate@?$allocator@UWinner@@@std@@QAEXPAXI@Z 0045ce30 f i animatewinner.obj
 0001:0005be70       ?construct@?$allocator@UWinner@@@std@@QAEXPAUWinner@@ABU3@@Z 0045ce70 f i animatewinner.obj
 0001:0005beb0       ??0const_iterator@?$list@UWinner@@V?$allocator@UWinner@@@std@@@std@@QAE@PAU_Node@12@@Z 0045ceb0 f i animatewinner.obj
 0001:0005bee0       ?_Mynode@const_iterator@?$list@UWinner@@V?$allocator@UWinner@@@std@@@std@@QBEPAU_Node@23@XZ 0045cee0 f i animatewinner.obj
 0001:0005bf00       ??Eiterator@?$list@UWinner@@V?$allocator@UWinner@@@std@@@std@@QAE?AV012@H@Z 0045cf00 f i animatewinner.obj
 0001:0005bf60       ?destroy@?$allocator@UWinner@@@std@@QAEXPAUWinner@@@Z 0045cf60 f i animatewinner.obj
 0001:0005bfa0       ?_Construct@std@@YAXPAUWinner@@ABU2@@Z 0045cfa0 f i animatewinner.obj
 0001:0005c050       ??0Winner@@QAE@ABU0@@Z     0045d050 f i animatewinner.obj
 0001:0005c090       ?_Destroy@std@@YAXPAUWinner@@@Z 0045d090 f i animatewinner.obj
 0001:0005c0a0       ??0CBuyInQueryDlg@@QAE@ABVCChips@@PAVCWnd@@@Z 0045d0a0 f   buyinquerydlg.obj
 0001:0005c188       ?DoDataExchange@CBuyInQueryDlg@@MAEXPAVCDataExchange@@@Z 0045d188 f   buyinquerydlg.obj
 0001:0005c265       ?_GetBaseMessageMap@CBuyInQueryDlg@@KGPBUAFX_MSGMAP@@XZ 0045d265 f   buyinquerydlg.obj
 0001:0005c26f       ?GetMessageMap@CBuyInQueryDlg@@MBEPBUAFX_MSGMAP@@XZ 0045d26f f   buyinquerydlg.obj
 0001:0005c300       ??_ECBuyInQueryDlg@@UAEPAXI@Z 0045d300 f i buyinquerydlg.obj
 0001:0005c300       ??_GCBuyInQueryDlg@@UAEPAXI@Z 0045d300 f i buyinquerydlg.obj
 0001:0005c350       ??D@YA?AVCChips@@HABV0@@Z  0045d350 f i buyinquerydlg.obj
 0001:0005c380       ??0CChatDlg@@QAE@PAVCWnd@@@Z 0045d380 f   chatdlg.obj
 0001:0005c465       ??1CChatDlg@@UAE@XZ        0045d465 f   chatdlg.obj
 0001:0005c4ca       ?DoDataExchange@CChatDlg@@MAEXPAVCDataExchange@@@Z 0045d4ca f   chatdlg.obj
 0001:0005c509       ?PreTranslateMessage@CChatDlg@@MAEHPAUtagMSG@@@Z 0045d509 f   chatdlg.obj
 0001:0005c593       ?_GetBaseMessageMap@CChatDlg@@KGPBUAFX_MSGMAP@@XZ 0045d593 f   chatdlg.obj
 0001:0005c59d       ?GetMessageMap@CChatDlg@@MBEPBUAFX_MSGMAP@@XZ 0045d59d f   chatdlg.obj
 0001:0005c5b4       ?OnSize@CChatDlg@@IAEXIHH@Z 0045d5b4 f   chatdlg.obj
 0001:0005c746       ?Create@CChatDlg@@UAEHPBD0KABUtagRECT@@PAVCWnd@@IPAUCCreateContext@@@Z 0045d746 f   chatdlg.obj
 0001:0005c7e7       ?OnInitDialog@CChatDlg@@UAEHXZ 0045d7e7 f   chatdlg.obj
 0001:0005c942       ?OnCommand@CChatDlg@@MAEHIJ@Z 0045d942 f   chatdlg.obj
 0001:0005cb39       ?OnSelchangeTab@CChatDlg@@IAEXPAUtagNMHDR@@PAJ@Z 0045db39 f   chatdlg.obj
 0001:0005cb56       ?checkSendTime@CChatDlg@@IAE_NXZ 0045db56 f   chatdlg.obj
 0001:0005cbe1       ?hideTabs@CChatDlg@@QAEXXZ 0045dbe1 f   chatdlg.obj
 0001:0005cbf3       ?OnNcHitTest@CChatDlg@@IAEIVCPoint@@@Z 0045dbf3 f   chatdlg.obj
 0001:0005cc21       ?OnRadioAll@CChatDlg@@IAEXXZ 0045dc21 f   chatdlg.obj
 0001:0005cc74       ?OnRadioDealer@CChatDlg@@IAEXXZ 0045dc74 f   chatdlg.obj
 0001:0005ccc7       ?OnRadioUser@CChatDlg@@IAEXXZ 0045dcc7 f   chatdlg.obj
 0001:0005cd1a       ?OnCheckSystemOnly@CChatDlg@@IAEXXZ 0045dd1a f   chatdlg.obj
 0001:0005cdbf       ?dock@CChatDlg@@QAEXW4ChatDlg_DockMode@1@@Z 0045ddbf f   chatdlg.obj
 0001:0005ceac       ?isDocked@CChatDlg@@QBE?AW4ChatDlg_DockMode@1@XZ 0045deac f   chatdlg.obj
 0001:0005cec7       ?attach@CChatDlg@@QAEXXZ   0045dec7 f   chatdlg.obj
 0001:0005d09d       ?getMinWidth@CChatDlg@@QBEHXZ 0045e09d f   chatdlg.obj
 0001:0005d410       ??_GCChatDlg@@UAEPAXI@Z    0045e410 f i chatdlg.obj
 0001:0005d410       ??_ECChatDlg@@UAEPAXI@Z    0045e410 f i chatdlg.obj
 0001:0005d460       ?_GetBaseClass@CChatEdit@@KGPAUCRuntimeClass@@XZ 0045e460 f   ChatEdit.obj
 0001:0005d46a       ?GetRuntimeClass@CChatEdit@@UBEPAUCRuntimeClass@@XZ 0045e46a f   ChatEdit.obj
 0001:0005d481       ??0CChatEdit@@QAE@XZ       0045e481 f   ChatEdit.obj
 0001:0005d4b1       ??1CChatEdit@@UAE@XZ       0045e4b1 f   ChatEdit.obj
 0001:0005d4de       ?_GetBaseMessageMap@CChatEdit@@KGPBUAFX_MSGMAP@@XZ 0045e4de f   ChatEdit.obj
 0001:0005d4e8       ?GetMessageMap@CChatEdit@@MBEPBUAFX_MSGMAP@@XZ 0045e4e8 f   ChatEdit.obj
 0001:0005d530       ??_GCChatEdit@@UAEPAXI@Z   0045e530 f i ChatEdit.obj
 0001:0005d530       ??_ECChatEdit@@UAEPAXI@Z   0045e530 f i ChatEdit.obj
 0001:0005d580       ??0CChatFrame@@QAE@XZ      0045e580 f   chatframe.obj
 0001:0005d5b0       ??1CChatFrame@@MAE@XZ      0045e5b0 f   chatframe.obj
 0001:0005d5dd       ?_GetBaseMessageMap@CChatFrame@@KGPBUAFX_MSGMAP@@XZ 0045e5dd f   chatframe.obj
 0001:0005d5e7       ?GetMessageMap@CChatFrame@@MBEPBUAFX_MSGMAP@@XZ 0045e5e7 f   chatframe.obj
 0001:0005d5fe       ?OnCreateClient@CChatFrame@@MAEHPAUtagCREATESTRUCTA@@PAUCCreateContext@@@Z 0045e5fe f   chatframe.obj
 0001:0005d790       ??_ECChatFrame@@MAEPAXI@Z  0045e790 f i chatframe.obj
 0001:0005d790       ??_GCChatFrame@@MAEPAXI@Z  0045e790 f i chatframe.obj
 0001:0005d7e0       ?SetUserColor@CChatView@@SAXK@Z 0045e7e0 f   ChatView.obj
 0001:0005d80b       ?SetNormalColor@CChatView@@SAXK@Z 0045e80b f   ChatView.obj
 0001:0005d836       ?SetCriticalColor@CChatView@@SAXK@Z 0045e836 f   ChatView.obj
 0001:0005d861       ?CreateObject@CChatView@@SGPAVCObject@@XZ 0045e861 f   ChatView.obj
 0001:0005d8ee       ?_GetBaseClass@CChatView@@KGPAUCRuntimeClass@@XZ 0045e8ee f   ChatView.obj
 0001:0005d8f8       ?GetRuntimeClass@CChatView@@UBEPAUCRuntimeClass@@XZ 0045e8f8 f   ChatView.obj
 0001:0005d90f       ??0CChatView@@QAE@XZ       0045e90f f   ChatView.obj
 0001:0005db5b       ??1CChatView@@MAE@XZ       0045eb5b f   ChatView.obj
 0001:0005dbfd       ?_GetBaseMessageMap@CChatView@@KGPBUAFX_MSGMAP@@XZ 0045ebfd f   ChatView.obj
 0001:0005dc07       ?GetMessageMap@CChatView@@MBEPBUAFX_MSGMAP@@XZ 0045ec07 f   ChatView.obj
 0001:0005dc1e       ?OnDraw@CChatView@@MAEXPAVCDC@@@Z 0045ec1e f   ChatView.obj
 0001:0005de4f       ?renderChatEntry@CChatView@@AAEHPAVCDC@@PAUChatEntry@1@HABVCRect@@@Z 0045ee4f f   ChatView.obj
 0001:0005df1a       ?OnContextMenu@CChatView@@IAEXPAVCWnd@@VCPoint@@@Z 0045ef1a f   ChatView.obj
 0001:0005dfd4       ?OnEditCopy@CChatView@@IAEXXZ 0045efd4 f   ChatView.obj
 0001:0005e24e       ?OnClear@CChatView@@IAEXXZ 0045f24e f   ChatView.obj
 0001:0005e28e       ?AssertValid@CChatView@@MBEXXZ 0045f28e f   ChatView.obj
 0001:0005e2b2       ?Dump@CChatView@@MBEXAAVCDumpContext@@@Z 0045f2b2 f   ChatView.obj
 0001:0005e2dc       ?OnInitialUpdate@CChatView@@UAEXXZ 0045f2dc f   ChatView.obj
 0001:0005e35a       ?OnSize@CChatView@@IAEXIHH@Z 0045f35a f   ChatView.obj
 0001:0005e4e3       ?addUserMessage@CChatView@@QAEXPBDKH@Z 0045f4e3 f   ChatView.obj
 0001:0005e53a       ?addDealerMessage@CChatView@@QAEXPBDKH@Z 0045f53a f   ChatView.obj
 0001:0005e58e       ?addDebugMessage@CChatView@@QAEXPBDKH@Z 0045f58e f   ChatView.obj
 0001:0005e5c9       ?addChatMessage@CChatView@@AAEXPAV?$list@UChatEntry@CChatView@@V?$allocator@UChatEntry@CChatView@@@std@@@std@@PBDKH@Z 0045f5c9 f   ChatView.obj
 0001:0005e922       ?setCurrentView@CChatView@@QAEXH@Z 0045f922 f   ChatView.obj
 0001:0005ea9b       ?PDUDebugPrint@@YAXPBDK@Z  0045fa9b f   ChatView.obj
 0001:0005ec49       ?SysDebugPrint@@YAXPBDK@Z  0045fc49 f   ChatView.obj
 0001:0005f1f0       ??0ChatEntry@CChatView@@QAE@ABV?$basic_string@DU?$char_traits@D@std@@V?$allocator@D@2@@std@@HK@Z 004601f0 f i ChatView.obj
 0001:0005f250       ??_GCChatView@@MAEPAXI@Z   00460250 f i ChatView.obj
 0001:0005f250       ??_ECChatView@@MAEPAXI@Z   00460250 f i ChatView.obj
 0001:0005f2a0       ??1ChatEntry@CChatView@@QAE@XZ 004602a0 f i ChatView.obj
 0001:0005f2e0       ??0ChatEntry@CChatView@@QAE@ABU01@@Z 004602e0 f i ChatView.obj
 0001:0005f350       ??0ComputeHeightsFtor@@QAE@PAVCDC@@PAVCRect@@@Z 00460350 f i ChatView.obj
 0001:0005f390       ??0SumHeightsFtor@@QAE@PAH@Z 00460390 f i ChatView.obj
 0001:0005f3c0       ??0PostDebugPrint@@QAE@PBDK@Z 004603c0 f i ChatView.obj
 0001:0005f470       ?execute@PostDebugPrint@@UAEXPAVGameState@Base@@@Z 00460470 f i ChatView.obj
 0001:0005f4d0       ??_EPostDebugPrint@@UAEPAXI@Z 004604d0 f i ChatView.obj
 0001:0005f4d0       ??_GPostDebugPrint@@UAEPAXI@Z 004604d0 f i ChatView.obj
 0001:0005f520       ??1PostDebugPrint@@UAE@XZ  00460520 f i ChatView.obj
 0001:0005f5a0       ??0?$list@UChatEntry@CChatView@@V?$allocator@UChatEntry@CChatView@@@std@@@std@@QAE@ABV?$allocator@UChatEntry@CChatView@@@1@@Z 004605a0 f i ChatView.obj
 0001:0005f600       ??1?$list@UChatEntry@CChatView@@V?$allocator@UChatEntry@CChatView@@@std@@@std@@QAE@XZ 00460600 f i ChatView.obj
 0001:0005f6a0       ?begin@?$list@UChatEntry@CChatView@@V?$allocator@UChatEntry@CChatView@@@std@@@std@@QAE?AViterator@12@XZ 004606a0 f i ChatView.obj
 0001:0005f6f0       ?end@?$list@UChatEntry@CChatView@@V?$allocator@UChatEntry@CChatView@@@std@@@std@@QAE?AViterator@12@XZ 004606f0 f i ChatView.obj
 0001:0005f730       ?rbegin@?$list@UChatEntry@CChatView@@V?$allocator@UChatEntry@CChatView@@@std@@@std@@QAE?AV?$reverse_bidirectional_iterator@Viterator@?$list@UChatEntry@CChatView@@V?$allocator@UChatEntry@CChatView@@@std@@@std@@UChatEntry@CChatView@@AAU45@PAU45@H@2@XZ 00460730 f i ChatView.obj
 0001:0005f790       ?rend@?$list@UChatEntry@CChatView@@V?$allocator@UChatEntry@CChatView@@@std@@@std@@QAE?AV?$reverse_bidirectional_iterator@Viterator@?$list@UChatEntry@CChatView@@V?$allocator@UChatEntry@CChatView@@@std@@@std@@UChatEntry@CChatView@@AAU45@PAU45@H@2@XZ 00460790 f i ChatView.obj
 0001:0005f7f0       ?size@?$list@UChatEntry@CChatView@@V?$allocator@UChatEntry@CChatView@@@std@@@std@@QBEIXZ 004607f0 f i ChatView.obj
 0001:0005f810       ?push_front@?$list@UChatEntry@CChatView@@V?$allocator@UChatEntry@CChatView@@@std@@@std@@QAEXABUChatEntry@CChatView@@@Z 00460810 f i ChatView.obj
 0001:0005f870       ?push_back@?$list@UChatEntry@CChatView@@V?$allocator@UChatEntry@CChatView@@@std@@@std@@QAEXABUChatEntry@CChatView@@@Z 00460870 f i ChatView.obj
 0001:0005f8d0       ?pop_back@?$list@UChatEntry@CChatView@@V?$allocator@UChatEntry@CChatView@@@std@@@std@@QAEXXZ 004608d0 f i ChatView.obj
 0001:0005f940       ?clear@?$list@UChatEntry@CChatView@@V?$allocator@UChatEntry@CChatView@@@std@@@std@@QAEXXZ 00460940 f i ChatView.obj
 0001:0005f9b0       ??D?$reverse_bidirectional_iterator@Viterator@?$list@UChatEntry@CChatView@@V?$allocator@UChatEntry@CChatView@@@std@@@std@@UChatEntry@CChatView@@AAU45@PAU45@H@std@@QBEAAUChatEntry@CChatView@@XZ 004609b0 f i ChatView.obj
 0001:0005fa00       ??C?$reverse_bidirectional_iterator@Viterator@?$list@UChatEntry@CChatView@@V?$allocator@UChatEntry@CChatView@@@std@@@std@@UChatEntry@CChatView@@AAU45@PAU45@H@std@@QBEPAUChatEntry@CChatView@@XZ 00460a00 f i ChatView.obj
 0001:0005fa30       ??E?$reverse_bidirectional_iterator@Viterator@?$list@UChatEntry@CChatView@@V?$allocator@UChatEntry@CChatView@@@std@@@std@@UChatEntry@CChatView@@AAU45@PAU45@H@std@@QAEAAV01@XZ 00460a30 f i ChatView.obj
 0001:0005fa60       ?insert@?$list@UChatEntry@CChatView@@V?$allocator@UChatEntry@CChatView@@@std@@@std@@QAE?AViterator@12@V312@ABUChatEntry@CChatView@@@Z 00460a60 f i ChatView.obj
 0001:0005fb60       ?erase@?$list@UChatEntry@CChatView@@V?$allocator@UChatEntry@CChatView@@@std@@@std@@QAE?AViterator@12@V312@@Z 00460b60 f i ChatView.obj
 0001:0005fc70       ?erase@?$list@UChatEntry@CChatView@@V?$allocator@UChatEntry@CChatView@@@std@@@std@@QAE?AViterator@12@V312@0@Z 00460c70 f i ChatView.obj
 0001:0005fd00       ?_Buynode@?$list@UChatEntry@CChatView@@V?$allocator@UChatEntry@CChatView@@@std@@@std@@IAEPAU_Node@12@PAU312@0@Z 00460d00 f i ChatView.obj
 0001:0005fdb0       ?_Freenode@?$list@UChatEntry@CChatView@@V?$allocator@UChatEntry@CChatView@@@std@@@std@@IAEXPAU_Node@12@@Z 00460db0 f i ChatView.obj
 0001:0005fdf0       ?_Next@_Acc@?$list@UChatEntry@CChatView@@V?$allocator@UChatEntry@CChatView@@@std@@@std@@SAAAPAU_Node@23@PAU423@@Z 00460df0 f i ChatView.obj
 0001:0005fe00       ??0iterator@?$list@UChatEntry@CChatView@@V?$allocator@UChatEntry@CChatView@@@std@@@std@@QAE@PAU_Node@12@@Z 00460e00 f i ChatView.obj
 0001:0005fe40       ??Diterator@?$list@UChatEntry@CChatView@@V?$allocator@UChatEntry@CChatView@@@std@@@std@@QBEAAUChatEntry@CChatView@@XZ 00460e40 f i ChatView.obj
 0001:0005fe80       ??Fiterator@?$list@UChatEntry@CChatView@@V?$allocator@UChatEntry@CChatView@@@std@@@std@@QAEAAV012@XZ 00460e80 f i ChatView.obj
 0001:0005fed0       ??0?$reverse_bidirectional_iterator@Viterator@?$list@UChatEntry@CChatView@@V?$allocator@UChatEntry@CChatView@@@std@@@std@@UChatEntry@CChatView@@AAU45@PAU45@H@std@@QAE@Viterator@?$list@UChatEntry@CChatView@@V?$allocator@UChatEntry@CChatView@@@std@@@1@@Z 00460ed0 f i ChatView.obj
 0001:0005ff00       ?_Prev@_Acc@?$list@UChatEntry@CChatView@@V?$allocator@UChatEntry@CChatView@@@std@@@std@@SAAAPAU_Node@23@PAU423@@Z 00460f00 f i ChatView.obj
 0001:0005ff10       ?_Value@_Acc@?$list@UChatEntry@CChatView@@V?$allocator@UChatEntry@CChatView@@@std@@@std@@SAAAUChatEntry@CChatView@@PAU_Node@23@@Z 00460f10 f i ChatView.obj
 0001:0005ff20       ?_Charalloc@?$allocator@UChatEntry@CChatView@@@std@@QAEPADI@Z 00460f20 f i ChatView.obj
 0001:0005ff60       ?deallocate@?$allocator@UChatEntry@CChatView@@@std@@QAEXPAXI@Z 00460f60 f i ChatView.obj
 0001:0005ffa0       ?construct@?$allocator@UChatEntry@CChatView@@@std@@QAEXPAUChatEntry@CChatView@@ABU34@@Z 00460fa0 f i ChatView.obj
 0001:0005ffe0       ?destroy@?$allocator@UChatEntry@CChatView@@@std@@QAEXPAUChatEntry@CChatView@@@Z 00460fe0 f i ChatView.obj
 0001:00060020       ??0const_iterator@?$list@UChatEntry@CChatView@@V?$allocator@UChatEntry@CChatView@@@std@@@std@@QAE@PAU_Node@12@@Z 00461020 f i ChatView.obj
 0001:00060050       ?_Mynode@const_iterator@?$list@UChatEntry@CChatView@@V?$allocator@UChatEntry@CChatView@@@std@@@std@@QBEPAU_Node@23@XZ 00461050 f i ChatView.obj
 0001:00060070       ??Eiterator@?$list@UChatEntry@CChatView@@V?$allocator@UChatEntry@CChatView@@@std@@@std@@QAE?AV012@H@Z 00461070 f i ChatView.obj
 0001:000600d0       ??9iterator@?$list@UChatEntry@CChatView@@V?$allocator@UChatEntry@CChatView@@@std@@@std@@QBE_NABV012@@Z 004610d0 f i ChatView.obj
 0001:00060120       ??Eiterator@?$list@UChatEntry@CChatView@@V?$allocator@UChatEntry@CChatView@@@std@@@std@@QAEAAV012@XZ 00461120 f i ChatView.obj
 0001:00060170       ??8iterator@?$list@UChatEntry@CChatView@@V?$allocator@UChatEntry@CChatView@@@std@@@std@@QBE_NABV012@@Z 00461170 f i ChatView.obj
 0001:000601a0       ??9std@@YA_NABV?$reverse_bidirectional_iterator@Viterator@?$list@UChatEntry@CChatView@@V?$allocator@UChatEntry@CChatView@@@std@@@std@@UChatEntry@CChatView@@AAU45@PAU45@H@0@0@Z 004611a0 f i ChatView.obj
 0001:000601d0       ?for_each@std@@YA?AUComputeHeightsFtor@@Viterator@?$list@UChatEntry@CChatView@@V?$allocator@UChatEntry@CChatView@@@std@@@1@0U2@@Z 004611d0 f i ChatView.obj
 0001:00060240       ??RComputeHeightsFtor@@QAE_NAAUChatEntry@CChatView@@@Z 00461240 f i ChatView.obj
 0001:00060300       ?for_each@std@@YA?AUSumHeightsFtor@@Viterator@?$list@UChatEntry@CChatView@@V?$allocator@UChatEntry@CChatView@@@std@@@1@0U2@@Z 00461300 f i ChatView.obj
 0001:00060360       ??RSumHeightsFtor@@QAE_NABUChatEntry@CChatView@@@Z 00461360 f i ChatView.obj
 0001:000603a0       ?_Construct@std@@YAXPAUChatEntry@CChatView@@ABU23@@Z 004613a0 f i ChatView.obj
 0001:00060450       ?_Destroy@std@@YAXPAUChatEntry@CChatView@@@Z 00461450 f i ChatView.obj
 0001:00060470       ??_GChatEntry@CChatView@@QAEPAXI@Z 00461470 f i ChatView.obj
 0001:000604c0       ??8std@@YA_NABV?$reverse_bidirectional_iterator@Viterator@?$list@UChatEntry@CChatView@@V?$allocator@UChatEntry@CChatView@@@std@@@std@@UChatEntry@CChatView@@AAU45@PAU45@H@0@0@Z 004614c0 f i ChatView.obj
 0001:00060520       ?base@?$reverse_bidirectional_iterator@Viterator@?$list@UChatEntry@CChatView@@V?$allocator@UChatEntry@CChatView@@@std@@@std@@UChatEntry@CChatView@@AAU45@PAU45@H@std@@QBE?AViterator@?$list@UChatEntry@CChatView@@V?$allocator@UChatEntry@CChatView@@@std@@@2@XZ 00461520 f i ChatView.obj
 0001:00060550       ?_GetBaseMessageMap@CCheckButton@@KGPBUAFX_MSGMAP@@XZ 00461550 f   checkbutton.obj
 0001:0006055a       ?GetMessageMap@CCheckButton@@MBEPBUAFX_MSGMAP@@XZ 0046155a f   checkbutton.obj
 0001:000605e9       ??0CCheckButton@@QAE@XZ    004615e9 f   checkbutton.obj
 0001:000606da       ?DrawItem@CCheckButton@@UAEXPAUtagDRAWITEMSTRUCT@@@Z 004616da f   checkbutton.obj
 0001:00060898       ?OnLButtonUp@CCheckButton@@IAEXIVCPoint@@@Z 00461898 f   checkbutton.obj
 0001:00060ab0       ??_ECCheckButton@@UAEPAXI@Z 00461ab0 f i checkbutton.obj
 0001:00060ab0       ??_GCCheckButton@@UAEPAXI@Z 00461ab0 f i checkbutton.obj
 0001:00060b00       ?onCheckPostBlind@CActionBar@@QAEXXZ 00461b00 f i checkbutton.obj
 0001:00060b30       ?onCheckSitout@CActionBar@@QAEXXZ 00461b30 f i checkbutton.obj
 0001:00060b60       ?onCheckCallInTurn@CActionBar@@QAEXXZ 00461b60 f i checkbutton.obj
 0001:00060b90       ?onCheckRaiseInTurn@CActionBar@@QAEXXZ 00461b90 f i checkbutton.obj
 0001:00060bc0       ?onCheckFoldInTurn@CActionBar@@QAEXXZ 00461bc0 f i checkbutton.obj
 0001:00060bf0       ?onCheckMuckHand@CActionBar@@QAEXXZ 00461bf0 f i checkbutton.obj
 0001:00060c20       ??0CCommentDialog@@QAE@ABVCString@@PAVCWnd@@@Z 00461c20 f   commentdialog.obj
 0001:00060c97       ?DoDataExchange@CCommentDialog@@MAEXPAVCDataExchange@@@Z 00461c97 f   commentdialog.obj
 0001:00060cc1       ?_GetBaseMessageMap@CCommentDialog@@KGPBUAFX_MSGMAP@@XZ 00461cc1 f   commentdialog.obj
 0001:00060ccb       ?GetMessageMap@CCommentDialog@@MBEPBUAFX_MSGMAP@@XZ 00461ccb f   commentdialog.obj
 0001:00060ce2       ?OnInitDialog@CCommentDialog@@MAEHXZ 00461ce2 f   commentdialog.obj
 0001:00060dd6       ?OnOK@CCommentDialog@@MAEXXZ 00461dd6 f   commentdialog.obj
 0001:00061180       ??_GCCommentDialog@@UAEPAXI@Z 00462180 f i commentdialog.obj
 0001:00061180       ??_ECCommentDialog@@UAEPAXI@Z 00462180 f i commentdialog.obj
 0001:000611d0       ??1CCommentDialog@@UAE@XZ  004621d0 f i commentdialog.obj
 0001:00061250       ?SanityCheckMax@?%C:\Documents and Settings\administrator\Desktop\poker_source\client\ui\global.cpp208426049@@YAXAAKK@Z 00462250 f   global.obj
 0001:000612c2       ??0Global@@QAE@XZ          004622c2 f   global.obj
 0001:0006139a       ??1Global@@UAE@XZ          0046239a f   global.obj
 0001:00061411       ?initInstance@Global@@QAEHXZ 00462411 f   global.obj
 0001:00061436       ?exitInstance@Global@@QAEHXZ 00462436 f   global.obj
 0001:0006146f       ?GetGameType@Global@@SA?AW4GameType@@XZ 0046246f f   global.obj
 0001:00061483       ?SetGameType@Global@@SAXW4GameType@@@Z 00462483 f   global.obj
 0001:000614f2       ?GetGameName@Global@@SAPBDXZ 004624f2 f   global.obj
 0001:00061537       ?AppName@Global@@SAPBDXZ   00462537 f   global.obj
 0001:00061541       ?GetFontFace@Global@@SAPBDXZ 00462541 f   global.obj
 0001:0006154b       ?GetFont@Global@@SAPAVCFont@@XZ 0046254b f   global.obj
 0001:00061563       ?GetBoldFont@Global@@SAPAVCFont@@XZ 00462563 f   global.obj
 0001:0006157b       ?getFont@Global@@QBEPAVCFont@@XZ 0046257b f   global.obj
 0001:00061661       ?getBoldFont@Global@@QBEPAVCFont@@XZ 00462661 f   global.obj
 0001:00061747       ?GetCharHeight@Global@@SAHXZ 00462747 f   global.obj
 0001:00061802       ?loginToLoungeServer@Global@@QAE_NPAUHWND__@@ABVCString@@H11@Z 00462802 f   global.obj
 0001:00061818       ?loginToLoungeServer@Global@@QAE_NPAUHWND__@@KHABVCString@@1@Z 00462818 f   global.obj
 0001:0006182e       ?loginToLoadBalancer@Global@@QAE_NPAUHWND__@@ABVCString@@H1@Z 0046282e f   global.obj
 0001:00061844       ?loginToPlayMoneyServer@Global@@QAE_NPAUHWND__@@ABVCString@@H11@Z 00462844 f   global.obj
 0001:0006185a       ?loginToRealMoneyServer@Global@@QAE_NPAUHWND__@@ABVCString@@H11@Z 0046285a f   global.obj
 0001:00061870       ?loginToTableServer@Global@@QAE_NKGABVCString@@0@Z 00462870 f   global.obj
 0001:0006198d       ?loginToTableServer@Global@@QAE_NABVCString@@H00@Z 0046298d f   global.obj
 0001:00061abf       ?closeTableServer@Global@@QAEXXZ 00462abf f   global.obj
 0001:00061b72       ?closeLoungeServer@Global@@QAEXXZ 00462b72 f   global.obj
 0001:00061c25       ?closeConnections@Global@@QAEXXZ 00462c25 f   global.obj
 0001:00061c56       ?IsTournament@Global@@SA_NXZ 00462c56 f   global.obj
 0001:00061c6a       ?SetIsTournament@Global@@SAX_N@Z 00462c6a f   global.obj
 0001:00061c81       ?SetCloseConnection@Global@@SAX_N@Z 00462c81 f   global.obj
 0001:00061c8e       ?CloseConnection@Global@@SA_NXZ 00462c8e f   global.obj
 0001:00061c98       ?GetBetting@Global@@SA?AW4BetStructure@Network@@XZ 00462c98 f   global.obj
 0001:00061cac       ?SetBetting@Global@@SAXW4BetStructure@Network@@@Z 00462cac f   global.obj
 0001:00061cc3       ?addActionTimeout@Global@@QAEXXZ 00462cc3 f   global.obj
 0001:00061d66       ?resetActionTimeouts@Global@@QAEXXZ 00462d66 f   global.obj
 0001:00061da2       ?getActionTimeouts@Global@@QBEHXZ 00462da2 f   global.obj
 0001:00061dba       ?isChatEnabled@Global@@QBE_NXZ 00462dba f   global.obj
 0001:00061de6       ?enableChat@Global@@QAEXABVCString@@@Z 00462de6 f   global.obj
 0001:00061e13       ?chatEnabledMsg@Global@@QBE?AVCString@@XZ 00462e13 f   global.obj
 0001:00062160       ??_GGlobal@@UAEPAXI@Z      00463160 f i global.obj
 0001:00062160       ??_EGlobal@@UAEPAXI@Z      00463160 f i global.obj
 0001:000621b0       ??0CInputDlg@@QAE@PAVCWnd@@@Z 004631b0 f   inputdlg.obj
 0001:00062237       ?DoDataExchange@CInputDlg@@MAEXPAVCDataExchange@@@Z 00463237 f   inputdlg.obj
 0001:00062276       ?_GetBaseMessageMap@CInputDlg@@KGPBUAFX_MSGMAP@@XZ 00463276 f   inputdlg.obj
 0001:00062280       ?GetMessageMap@CInputDlg@@MBEPBUAFX_MSGMAP@@XZ 00463280 f   inputdlg.obj
 0001:00062297       ?getText@CInputDlg@@QBE?AVCString@@XZ 00463297 f   inputdlg.obj
 0001:00062330       ??_ECInputDlg@@UAEPAXI@Z   00463330 f i inputdlg.obj
 0001:00062330       ??_GCInputDlg@@UAEPAXI@Z   00463330 f i inputdlg.obj
 0001:00062380       ??1CInputDlg@@UAE@XZ       00463380 f i inputdlg.obj
 0001:00062400       ??0CLoginDlg@@QAE@PAVCWnd@@@Z 00463400 f   logindlg.obj
 0001:000625c1       ??1CLoginDlg@@UAE@XZ       004635c1 f   logindlg.obj
 0001:00062644       ?DoDataExchange@CLoginDlg@@MAEXPAVCDataExchange@@@Z 00463644 f   logindlg.obj
 0001:000626e6       ?_GetBaseMessageMap@CLoginDlg@@KGPBUAFX_MSGMAP@@XZ 004636e6 f   logindlg.obj
 0001:000626f0       ?GetMessageMap@CLoginDlg@@MBEPBUAFX_MSGMAP@@XZ 004636f0 f   logindlg.obj
 0001:00062707       ?OnOK@CLoginDlg@@MAEXXZ    00463707 f   logindlg.obj
 0001:00062766       ?OnChangePassword@CLoginDlg@@IAEXXZ 00463766 f   logindlg.obj
 0001:0006278a       ?OnChangeUsername@CLoginDlg@@IAEXXZ 0046378a f   logindlg.obj
 0001:000627ae       ?enableOK@CLoginDlg@@IAEXXZ 004637ae f   logindlg.obj
 0001:000628b9       ?OnInitDialog@CLoginDlg@@MAEHXZ 004638b9 f   logindlg.obj
 0001:000628ea       ?savePassword@CLoginDlg@@IBEHXZ 004638ea f   logindlg.obj
 0001:00062a40       ??_GCLoginDlg@@UAEPAXI@Z   00463a40 f i logindlg.obj
 0001:00062a40       ??_ECLoginDlg@@UAEPAXI@Z   00463a40 f i logindlg.obj
 0001:00062aeb       ??0CMailDocument@@QAE@ABVCString@@0@Z 00463aeb f   maildoc.obj
 0001:00062b6f       ??1CMailDocument@@UAE@XZ   00463b6f f   maildoc.obj
 0001:00062be6       ?setBody@CMailDocument@@QAEXABVCString@@@Z 00463be6 f   maildoc.obj
 0001:00062c13       ?setSubject@CMailDocument@@QAEXABVCString@@@Z 00463c13 f   maildoc.obj
 0001:00062c40       ?setAddress@CMailDocument@@QAEXABVCString@@@Z 00463c40 f   maildoc.obj
 0001:00062c6d       ?IsMAPIAvailable@CMailDocument@@SAHXZ 00463c6d f   maildoc.obj
 0001:00062ce1       ?sendMail@CMailDocument@@QAEH_N@Z 00463ce1 f   maildoc.obj
 0001:00063140       ??0MailState@@QAE@XZ       00464140 f i maildoc.obj
 0001:00063170       ??1MailState@@QAE@XZ       00464170 f i maildoc.obj
 0001:000631d0       ??_GCMailDocument@@UAEPAXI@Z 004641d0 f i maildoc.obj
 0001:000631d0       ??_ECMailDocument@@UAEPAXI@Z 004641d0 f i maildoc.obj
 0001:00063220       ?PromptString@?%C:\Documents and Settings\administrator\Desktop\poker_source\client\ui\mainwnd.cpp36743145@@YA?AVCString@@PAVCWnd@@PBD@Z 00464220 f   mainwnd.obj
 0001:000632de       ?GetHandLogEmailAddress@?%C:\Documents and Settings\administrator\Desktop\poker_source\client\ui\mainwnd.cpp36743145@@YA?AVCString@@PAVCWnd@@@Z 004642de f   mainwnd.obj
 0001:000633e1       ??0CMainWnd@@QAE@I@Z       004643e1 f   mainwnd.obj
 0001:0006349a       ??1CMainWnd@@MAE@XZ        0046449a f   mainwnd.obj
 0001:00063542       ?_GetBaseMessageMap@CMainWnd@@KGPBUAFX_MSGMAP@@XZ 00464542 f   mainwnd.obj
 0001:0006354c       ?GetMessageMap@CMainWnd@@MBEPBUAFX_MSGMAP@@XZ 0046454c f   mainwnd.obj
 0001:00063563       ?Create@CMainWnd@@QAEHHPBD0@Z 00464563 f   mainwnd.obj
 0001:0006360a       ?DestroyWindow@CMainWnd@@UAEHXZ 0046460a f   mainwnd.obj
 0001:00063636       ?OnCreateClient@CMainWnd@@MAEHPAUtagCREATESTRUCTA@@PAUCCreateContext@@@Z 00464636 f   mainwnd.obj
 0001:000637a5       ?OnCreate@CMainWnd@@IAEHPAUtagCREATESTRUCTA@@@Z 004647a5 f   mainwnd.obj
 0001:00063972       ?OnEraseBkgnd@CMainWnd@@IAEHPAVCDC@@@Z 00464972 f   mainwnd.obj
 0001:0006398b       ?OnSize@CMainWnd@@IAEXIHH@Z 0046498b f   mainwnd.obj
 0001:00063aa5       ?OnClose@CMainWnd@@IAEXXZ  00464aa5 f   mainwnd.obj
 0001:00063b7a       ?OnAppAbout@CMainWnd@@IAEXXZ 00464b7a f   mainwnd.obj
 0001:00063bfb       ?OnOptions@CMainWnd@@IAEXXZ 00464bfb f   mainwnd.obj
 0001:00063c6e       ?OnLogin@CMainWnd@@IAEXXZ  00464c6e f   mainwnd.obj
 0001:00063ce4       ?OnUpdateLogin@CMainWnd@@IAEXPAVCCmdUI@@@Z 00464ce4 f   mainwnd.obj
 0001:00063d22       ?OnLogout@CMainWnd@@IAEXXZ 00464d22 f   mainwnd.obj
 0001:00063d83       ?OnUpdateLogout@CMainWnd@@IAEXPAVCCmdUI@@@Z 00464d83 f   mainwnd.obj
 0001:00063dc2       ?OnMotd@CMainWnd@@IAEXXZ   00464dc2 f   mainwnd.obj
 0001:00063dd4       ?saveSettings@CMainWnd@@QAEXXZ 00464dd4 f   mainwnd.obj
 0001:00063f23       ?restoreSettings@CMainWnd@@QAEXXZ 00464f23 f   mainwnd.obj
 0001:00064344       ?recreateActionBar@CMainWnd@@AAEXXZ 00465344 f   mainwnd.obj
 0001:00064475       ?OnTable@CMainWnd@@IAEXXZ  00465475 f   mainwnd.obj
 0001:00064625       ?OnGetMinMaxInfo@CMainWnd@@IAEXPAUtagMINMAXINFO@@@Z 00465625 f   mainwnd.obj
 0001:000646e7       ?OnSoundtoggle@CMainWnd@@IAEXXZ 004656e7 f   mainwnd.obj
 0001:00064721       ?OnUpdateSoundtoggle@CMainWnd@@IAEXPAVCCmdUI@@@Z 00465721 f   mainwnd.obj
 0001:0006476e       ?OnUpdateOnlineIndicator@CMainWnd@@IAEXPAVCCmdUI@@@Z 0046576e f   mainwnd.obj
 0001:00064859       ?PreTranslateMessage@CMainWnd@@UAEHPAUtagMSG@@@Z 00465859 f   mainwnd.obj
 0001:0006495f       ?SetStatusText@CMainWnd@@SAXABVCString@@@Z 0046595f f   mainwnd.obj
 0001:000649b6       ?onTestDownload@CMainWnd@@IAEXXZ 004659b6 f   mainwnd.obj
 0001:000649c8       ?OnCommand@CMainWnd@@MAEHIJ@Z 004659c8 f   mainwnd.obj
 0001:00064a76       ?toggleActionBar@CMainWnd@@AAEXI@Z 00465a76 f   mainwnd.obj
 0001:00064c73       ?toggleChatWnd@CMainWnd@@AAEXH@Z 00465c73 f   mainwnd.obj
 0001:00064ce8       ?OnRequestprevhand@CMainWnd@@IAEXXZ 00465ce8 f   mainwnd.obj
 0001:00064da1       ?OnUpdateRequestprevhand@CMainWnd@@IAEXPAVCCmdUI@@@Z 00465da1 f   mainwnd.obj
 0001:00064e08       ?OnRequest5handlog@CMainWnd@@IAEXXZ 00465e08 f   mainwnd.obj
 0001:00064ec1       ?OnUpdateRequest5handlog@CMainWnd@@IAEXPAVCCmdUI@@@Z 00465ec1 f   mainwnd.obj
 0001:00064f28       ?OnMove@CMainWnd@@IAEXHH@Z 00465f28 f   mainwnd.obj
 0001:00065000       ?OnBuyin@CMainWnd@@IAEXXZ  00466000 f   mainwnd.obj
 0001:00065051       ?OnUpdateBuyin@CMainWnd@@IAEXPAVCCmdUI@@@Z 00466051 f   mainwnd.obj
 0001:000650c5       ?OnTimer@CMainWnd@@IAEXI@Z 004660c5 f   mainwnd.obj
 0001:0006515a       ?OnTestloginout@CMainWnd@@IAEXXZ 0046615a f   mainwnd.obj
 0001:0006516c       ?getStatusBarHeight@CMainWnd@@QBEHXZ 0046616c f   mainwnd.obj
 0001:000651e1       ?OnMeasureItem@CMainWnd@@IAEXHPAUtagMEASUREITEMSTRUCT@@@Z 004661e1 f   mainwnd.obj
 0001:00065a40       ??1CPromptInputDlg@@UAE@XZ 00466a40 f i mainwnd.obj
 0001:00065ad0       ??_GCMainWnd@@MAEPAXI@Z    00466ad0 f i mainwnd.obj
 0001:00065ad0       ??_ECMainWnd@@MAEPAXI@Z    00466ad0 f i mainwnd.obj
 0001:00065b20       ??1COptionsDlg@@UAE@XZ     00466b20 f i mainwnd.obj
 0001:00065b50       ?SetWindow@Server@Network@@SAXPAUHWND__@@@Z 00466b50 f i mainwnd.obj
 0001:00065b60       ?enable@SoundManager@@QAEXH@Z 00466b60 f i mainwnd.obj
 0001:00065b90       ?isEnabled@SoundManager@@QBEHXZ 00466b90 f i mainwnd.obj
 0001:00065bb0       ??0COptionsDlg@@QAE@PAVCWnd@@@Z 00466bb0 f   optionsdlg.obj
 0001:00065beb       ?DoDataExchange@COptionsDlg@@MAEXPAVCDataExchange@@@Z 00466beb f   optionsdlg.obj
 0001:00065c15       ?_GetBaseMessageMap@COptionsDlg@@KGPBUAFX_MSGMAP@@XZ 00466c15 f   optionsdlg.obj
 0001:00065c1f       ?GetMessageMap@COptionsDlg@@MBEPBUAFX_MSGMAP@@XZ 00466c1f f   optionsdlg.obj
 0001:00065c36       ?OnCheckSettingsHorzactionbar@COptionsDlg@@IAEXXZ 00466c36 f   optionsdlg.obj
 0001:00065c8a       ?OnSettingsDockactionbar@COptionsDlg@@IAEXXZ 00466c8a f   optionsdlg.obj
 0001:00065cc1       ?OnSettingsDockchatwnd@COptionsDlg@@IAEXXZ 00466cc1 f   optionsdlg.obj
 0001:00065d6a       ?OnSettingsDockchatleft@COptionsDlg@@IAEXXZ 00466d6a f   optionsdlg.obj
 0001:00065e14       ?OnCheckSettingsSounds@COptionsDlg@@IAEXXZ 00466e14 f   optionsdlg.obj
 0001:00065e83       ?OnCheckSettinsTtips@COptionsDlg@@IAEXXZ 00466e83 f   optionsdlg.obj
 0001:00065eee       ?OnCheckSettingsTakefocus@COptionsDlg@@IAEXXZ 00466eee f   optionsdlg.obj
 0001:00065f5f       ?OnInitDialog@COptionsDlg@@MAEHXZ 00466f5f f   optionsdlg.obj
 0001:0006616d       ?OnOK@COptionsDlg@@MAEXXZ  0046716d f   optionsdlg.obj
 0001:000661fb       ?OnToolTipNotify@COptionsDlg@@IAEHIPAUtagNMHDR@@PAJ@Z 004671fb f   optionsdlg.obj
 0001:00066580       ??_GCOptionsDlg@@UAEPAXI@Z 00467580 f i optionsdlg.obj
 0001:00066580       ??_ECOptionsDlg@@UAEPAXI@Z 00467580 f i optionsdlg.obj
 0001:000665d0       ?TakeFocusOnRequest@GameLogic@Base@@SAXH@Z 004675d0 f i optionsdlg.obj
 0001:000665f0       ??0COwnerDrawMenu@@QAE@XZ  004675f0 f   ownerdrawmenu.obj
 0001:00066620       ??1COwnerDrawMenu@@UAE@XZ  00467620 f   ownerdrawmenu.obj
 0001:0006664d       ?MeasureItem@COwnerDrawMenu@@UAEXPAUtagMEASUREITEMSTRUCT@@@Z 0046764d f   ownerdrawmenu.obj
 0001:0006675b       ?DrawItem@COwnerDrawMenu@@UAEXPAUtagDRAWITEMSTRUCT@@@Z 0046775b f   ownerdrawmenu.obj
 0001:000669d0       ??_ECOwnerDrawMenu@@UAEPAXI@Z 004679d0 f i ownerdrawmenu.obj
 0001:000669d0       ??_GCOwnerDrawMenu@@UAEPAXI@Z 004679d0 f i ownerdrawmenu.obj
 0001:00066a20       ??0CPromptInputDlg@@QAE@PAVCWnd@@@Z 00467a20 f   promptinputdlg.obj
 0001:00066ac6       ?DoDataExchange@CPromptInputDlg@@MAEXPAVCDataExchange@@@Z 00467ac6 f   promptinputdlg.obj
 0001:00066b1a       ?_GetBaseMessageMap@CPromptInputDlg@@KGPBUAFX_MSGMAP@@XZ 00467b1a f   promptinputdlg.obj
 0001:00066b24       ?GetMessageMap@CPromptInputDlg@@MBEPBUAFX_MSGMAP@@XZ 00467b24 f   promptinputdlg.obj
 0001:00066b90       ??_GCPromptInputDlg@@UAEPAXI@Z 00467b90 f i promptinputdlg.obj
 0001:00066b90       ??_ECPromptInputDlg@@UAEPAXI@Z 00467b90 f i promptinputdlg.obj
 0001:00066c46       ?SetInstanceNumber@Registry@@SAXH@Z 00467c46 f   registry.obj
 0001:00066c53       ?GetInstanceNumber@Registry@@SAHXZ 00467c53 f   registry.obj
 0001:00066c5d       ?GetTournamentTest@Registry@@SAHH@Z 00467c5d f   registry.obj
 0001:00066c7c       ?GetUseSSL@Registry@@SAHH@Z 00467c7c f   registry.obj
 0001:00066c9b       ?GetActionBarLayout@Registry@@SAHH@Z 00467c9b f   registry.obj
 0001:00066d2e       ?SetActionBarLayout@Registry@@SAJH@Z 00467d2e f   registry.obj
 0001:00066dc1       ?GetActionBarDock@Registry@@SAHH@Z 00467dc1 f   registry.obj
 0001:00066e54       ?SetActionBarDock@Registry@@SAJH@Z 00467e54 f   registry.obj
 0001:00066ee7       ?GetChatWndDock@Registry@@SAHH@Z 00467ee7 f   registry.obj
 0001:00066f7a       ?SetChatWndDock@Registry@@SAJH@Z 00467f7a f   registry.obj
 0001:0006700d       ?GetSoundEnabled@Registry@@SAHH@Z 0046800d f   registry.obj
 0001:0006702c       ?SetSoundEnabled@Registry@@SAJH@Z 0046802c f   registry.obj
 0001:0006704b       ?GetActionBarTTips@Registry@@SAHH@Z 0046804b f   registry.obj
 0001:0006706a       ?SetActionBarTTips@Registry@@SAJH@Z 0046806a f   registry.obj
 0001:00067089       ?GetCheckMuckHand@Registry@@SAHH@Z 00468089 f   registry.obj
 0001:000670a8       ?SetCheckMuckHand@Registry@@SAJH@Z 004680a8 f   registry.obj
 0001:000670c7       ?GetSettingsTakeFocus@Registry@@SAHH@Z 004680c7 f   registry.obj
 0001:000670e6       ?SetSettingsTakeFocus@Registry@@SAJH@Z 004680e6 f   registry.obj
 0001:00067105       ?GetHandLogEmailAddress@Registry@@SA?AVCString@@ABV2@@Z 00468105 f   registry.obj
 0001:000671b5       ?SetHandLogEmailAddress@Registry@@SAJABVCString@@@Z 004681b5 f   registry.obj
 0001:000671d9       ?GetWndRect@Registry@@SA?AVCRect@@ABV2@@Z 004681d9 f   registry.obj
 0001:000673f5       ?SetWndRect@Registry@@SAJABVCRect@@@Z 004683f5 f   registry.obj
 0001:00067591       ?GetChatRect@Registry@@SA?AVCRect@@ABV2@@Z 00468591 f   registry.obj
 0001:000677ad       ?SetChatRect@Registry@@SAJABVCRect@@@Z 004687ad f   registry.obj
 0001:00067949       ?GetActionBarPos@Registry@@SA?AVCPoint@@ABV2@@Z 00468949 f   registry.obj
 0001:00067ab4       ?SetActionBarPos@Registry@@SAJABVCPoint@@@Z 00468ab4 f   registry.obj
 0001:00067ba5       ?GetSplitterPos@Registry@@SAHH@Z 00468ba5 f   registry.obj
 0001:00067bc4       ?SetSplitterPos@Registry@@SAJH@Z 00468bc4 f   registry.obj
 0001:00067be3       ?GetDealCardTime@Registry@@SAKH@Z 00468be3 f   registry.obj
 0001:00067c02       ?GetShowAllCards@Registry@@SAKH@Z 00468c02 f   registry.obj
 0001:00067c21       ?GetDrawPlayerBounds@Registry@@SAKH@Z 00468c21 f   registry.obj
 0001:00067c40       ?GetShowdownTime@Registry@@SAKH@Z 00468c40 f   registry.obj
 0001:00067c5f       ?GetWaitActionTime@Registry@@SAKH@Z 00468c5f f   registry.obj
 0001:00067c7e       ?GetServerHostName@Registry@@SA?AVCString@@ABV2@@Z 00468c7e f   registry.obj
 0001:00067d2e       ?GetServerPort@Registry@@SAHH@Z 00468d2e f   registry.obj
 0001:00067d4d       ?SetServerHostName@Registry@@SAJABVCString@@@Z 00468d4d f   registry.obj
 0001:00067d71       ?SetServerPort@Registry@@SAJH@Z 00468d71 f   registry.obj
 0001:00067d90       ?GetUpgradeServerPort@Registry@@SAHH@Z 00468d90 f   registry.obj
 0001:00067daf       ?GetUsername@Registry@@SA?AVCString@@ABV2@@Z 00468daf f   registry.obj
 0001:00067e5f       ?GetPassword@Registry@@SA?AVCString@@ABV2@@Z 00468e5f f   registry.obj
 0001:00067f0f       ?SetUsername@Registry@@SAJABVCString@@@Z 00468f0f f   registry.obj
 0001:00067f33       ?SetPassword@Registry@@SAJABVCString@@@Z 00468f33 f   registry.obj
 0001:00067f57       ?Get1_02@Registry@@SAHH@Z  00468f57 f   registry.obj
 0001:00067f76       ?Set1_02@Registry@@SAJH@Z  00468f76 f   registry.obj
 0001:000684eb       ??0SoundManager@@QAE@XZ    004694eb f   soundmanager.obj
 0001:000685d6       ??1SoundManager@@QAE@XZ    004695d6 f   soundmanager.obj
 0001:000685f2       ?playSound@SoundManager@@QAEHW4Sound@1@K@Z 004695f2 f   soundmanager.obj
 0001:0006866a       ?randomize@SoundManager@@ABE?AW4Sound@1@W421@@Z 0046966a f   soundmanager.obj
 0001:000687c0       ??0CSplashWnd@@IAE@XZ      004697c0 f   splashwnd.obj
 0001:0006880e       ??1CSplashWnd@@UAE@XZ      0046980e f   splashwnd.obj
 0001:000688db       ?_GetBaseMessageMap@CSplashWnd@@KGPBUAFX_MSGMAP@@XZ 004698db f   splashwnd.obj
 0001:000688e5       ?GetMessageMap@CSplashWnd@@MBEPBUAFX_MSGMAP@@XZ 004698e5 f   splashwnd.obj
 0001:000688fc       ?EnableSplashScreen@CSplashWnd@@SAXH@Z 004698fc f   splashwnd.obj
 0001:00068909       ?ShowSplashScreen@CSplashWnd@@SAHPBDHHPAVCWnd@@@Z 00469909 f   splashwnd.obj
 0001:00068ae6       ?PreTranslateAppMessage@CSplashWnd@@SAHPAUtagMSG@@@Z 00469ae6 f   splashwnd.obj
 0001:00068b73       ?Create@CSplashWnd@@IAEHPBDHHPAVCWnd@@@Z 00469b73 f   splashwnd.obj
 0001:00068c2b       ?HideSplashScreen@CSplashWnd@@IAEXXZ 00469c2b f   splashwnd.obj
 0001:00068c8a       ?PostNcDestroy@CSplashWnd@@UAEXXZ 00469c8a f   splashwnd.obj
 0001:00068ce8       ?OnCreate@CSplashWnd@@IAEHPAUtagCREATESTRUCTA@@@Z 00469ce8 f   splashwnd.obj
 0001:00068d42       ?OnPaint@CSplashWnd@@IAEXXZ 00469d42 f   splashwnd.obj
 0001:00068dca       ?OnTimer@CSplashWnd@@IAEXI@Z 00469dca f   splashwnd.obj
 0001:00068f80       ??_ECSplashWnd@@UAEPAXI@Z  00469f80 f i splashwnd.obj
 0001:00068f80       ??_GCSplashWnd@@UAEPAXI@Z  00469f80 f i splashwnd.obj
 0001:00069086       ?PlayerIsInGame@?%C:\Documents and Settings\administrator\Desktop\poker_source\client\ui\tableview.cpp158683681@@YAHPAVPlayer@Base@@H@Z 0046a086 f   tableview.obj
 0001:000690a0       ?_GetBaseClass@CTableView@@KGPAUCRuntimeClass@@XZ 0046a0a0 f   tableview.obj
 0001:000690aa       ?GetRuntimeClass@CTableView@@UBEPAUCRuntimeClass@@XZ 0046a0aa f   tableview.obj
 0001:000690c1       ??0CTableView@@QAE@ABVCString@@HH@Z 0046a0c1 f   tableview.obj
 0001:000692cc       ??1CTableView@@MAE@XZ      0046a2cc f   tableview.obj
 0001:00069539       ?_GetBaseMessageMap@CTableView@@KGPBUAFX_MSGMAP@@XZ 0046a539 f   tableview.obj
 0001:00069543       ?GetMessageMap@CTableView@@MBEPBUAFX_MSGMAP@@XZ 0046a543 f   tableview.obj
 0001:0006955a       ?OnDraw@CTableView@@MAEXPAVCDC@@@Z 0046a55a f   tableview.obj
 0001:00069870       ?AssertValid@CTableView@@MBEXXZ 0046a870 f   tableview.obj
 0001:00069894       ?Dump@CTableView@@MBEXAAVCDumpContext@@@Z 0046a894 f   tableview.obj
 0001:000698be       ?OnEraseBkgnd@CTableView@@IAEHPAVCDC@@@Z 0046a8be f   tableview.obj
 0001:00069ba9       ?drawBackground@CTableView@@IAEXPAVCDC@@ABVCSize@@_N@Z 0046aba9 f   tableview.obj
 0001:00069d9d       ?OnLButtonUp@CTableView@@IAEXIVCPoint@@@Z 0046ad9d f   tableview.obj
 0001:00069e07       ?OnInitialUpdate@CTableView@@UAEXXZ 0046ae07 f   tableview.obj
 0001:0006a156       ?OnToolTipNeedText@CTableView@@IAEHIPAUtagNMHDR@@PAJ@Z 0046b156 f   tableview.obj
 0001:0006a49b       ?OnCommand@CTableView@@MAEHIJ@Z 0046b49b f   tableview.obj
 0001:0006a6c5       ?OnKeyDown@CTableView@@IAEXIII@Z 0046b6c5 f   tableview.obj
 0001:0006a73a       ?OnSize@CTableView@@IAEXIHH@Z 0046b73a f   tableview.obj
 0001:0006a774       ?Create@CTableView@@UAEHPBD0KABUtagRECT@@PAVCWnd@@IPAUCCreateContext@@@Z 0046b774 f   tableview.obj
 0001:0006a7ea       ?numPlayers@CTableView@@QBEHK@Z 0046b7ea f   tableview.obj
 0001:0006a89a       ?drawIndicators@CTableView@@IAEXPAVCDC@@@Z 0046b89a f   tableview.obj
 0001:0006acc5       ?getIndicatorArea@CTableView@@IAEXPAVCRect@@00@Z 0046bcc5 f   tableview.obj
 0001:0006b077       ?SetAnnouncementRect@CTableView@@SAXABVCRect@@@Z 0046c077 f   tableview.obj
 0001:0006b07c       ?drawAnnouncement@CTableView@@IAEXPAVCDC@@@Z 0046c07c f   tableview.obj
 0001:0006b090       ?drawGameNumber@CTableView@@IAEXPAVCDC@@@Z 0046c090 f   tableview.obj
 0001:0006b25a       ?resetCards@CTableView@@QAEX_N@Z 0046c25a f   tableview.obj
 0001:0006b440       ?resetPot@CTableView@@QAE?AVCChips@@_N@Z 0046c440 f   tableview.obj
 0001:0006b52b       ?shuffle@CTableView@@QAEXXZ 0046c52b f   tableview.obj
 0001:0006b620       ?recalcLayout@CTableView@@QAEXXZ 0046c620 f   tableview.obj
 0001:0006b644       ?setPlayerTurnindicatorDir@CTableView@@QAEXHW4TurnIndicatorDirection@PlayerSlot@@@Z 0046c644 f   tableview.obj
 0001:0006b6ba       ?playerTurnindicatorDir@CTableView@@QBE?AW4TurnIndicatorDirection@PlayerSlot@@H@Z 0046c6ba f   tableview.obj
 0001:0006b754       ?setPlayerPos@CTableView@@QAEXHABVCPoint@@@Z 0046c754 f   tableview.obj
 0001:0006b7ed       ?setPlayerLabelPos@CTableView@@QAEXHABVCPoint@@@Z 0046c7ed f   tableview.obj
 0001:0006b886       ?setPlayerChipPos@CTableView@@QAEXHABVCPoint@@H@Z 0046c886 f   tableview.obj
 0001:0006b94f       ?setPlayerOpenCardPos@CTableView@@QAEXHABVCPoint@@@Z 0046c94f f   tableview.obj
 0001:0006b9e8       ?setPlayerBacksidePos@CTableView@@QAEXHABVCPoint@@@Z 0046c9e8 f   tableview.obj
 0001:0006ba81       ?getMinMaxInfo@CTableView@@QAEXPAUtagMINMAXINFO@@@Z 0046ca81 f   tableview.obj
 0001:0006bbe6       ?getPlayer@CTableView@@QBEPAVPlayer@Base@@H@Z 0046cbe6 f   tableview.obj
 0001:0006bc5c       ?getPlayer@CTableView@@QBEPAVPlayer@Base@@ABVCString@@@Z 0046cc5c f   tableview.obj
 0001:0006bd57       ?getLocalPlayerIndex@CTableView@@QBEHXZ 0046cd57 f   tableview.obj
 0001:0006bde4       ?hitTest@CTableView@@QBEPAVPlayer@Base@@ABVCPoint@@@Z 0046cde4 f   tableview.obj
 0001:0006be97       ?hitTestLabel@CTableView@@QBEPAVPlayer@Base@@ABVCPoint@@@Z 0046ce97 f   tableview.obj
 0001:0006c029       ?setDealer@CTableView@@QAEXH_N@Z 0046d029 f   tableview.obj
 0001:0006c140       ?lastPlayer@CTableView@@QBEHXZ 0046d140 f   tableview.obj
 0001:0006c164       ?isLast@CTableView@@QBE_NH@Z 0046d164 f   tableview.obj
 0001:0006c194       ?isLocalPlayer@CTableView@@QBE_NH@Z 0046d194 f   tableview.obj
 0001:0006c20a       ?getNextPlayer@CTableView@@QBEHH@Z 0046d20a f   tableview.obj
 0001:0006c299       ?getPreviousPlayer@CTableView@@QBEHH@Z 0046d299 f   tableview.obj
 0001:0006c335       ?getNextPlayerInGame@CTableView@@QBEHH@Z 0046d335 f   tableview.obj
 0001:0006c3e2       ?getLeftOfBigBlind@CTableView@@QBEHXZ 0046d3e2 f   tableview.obj
 0001:0006c442       ?getSmallBlind@CTableView@@QBEHXZ 0046d442 f   tableview.obj
 0001:0006c594       ?getBigBlind@CTableView@@QBEHXZ 0046d594 f   tableview.obj
 0001:0006c6d9       ?invalidatePlayerArea@CTableView@@QBEXH_N@Z 0046d6d9 f   tableview.obj
 0001:0006c772       ?addPlayer@CTableView@@QAEXPBDABVCChips@@H@Z 0046d772 f   tableview.obj
 0001:0006c943       ?updatePlayer@CTableView@@QAEXPBDABVCChips@@H@Z 0046d943 f   tableview.obj
 0001:0006ca56       ?removePlayer@CTableView@@QAEXH@Z 0046da56 f   tableview.obj
 0001:0006cb30       ?setState@CTableView@@QAEXHH@Z 0046db30 f   tableview.obj
 0001:0006cc61       ?OnViewBackground@CTableView@@IAEXXZ 0046dc61 f   tableview.obj
 0001:0006cdeb       ?loadBackground@CTableView@@QAEXVCString@@_N@Z 0046ddeb f   tableview.obj
 0001:0006d01c       ?OnReloadConfiguration@CTableView@@IAEXXZ 0046e01c f   tableview.obj
 0001:0006d08c       ?OnUpdateReloadConfiguration@CTableView@@IAEXPAVCCmdUI@@@Z 0046e08c f   tableview.obj
 0001:0006d0f1       ?setCaption@CTableView@@QAEXXZ 0046e0f1 f   tableview.obj
 0001:0006d220       ?resetCaption@CTableView@@QAEXXZ 0046e220 f   tableview.obj
 0001:0006d255       ?reloadConfiguration@CTableView@@QAEXXZ 0046e255 f   tableview.obj
 0001:0006d279       ?announce@CTableView@@QAEXABVCString@@@Z 0046e279 f   tableview.obj
 0001:0006d28d       ?setGameNumber@CTableView@@QAEXKH@Z 0046e28d f   tableview.obj
 0001:0006d3fc       ?showWinner@CTableView@@QAEXHI@Z 0046e3fc f   tableview.obj
 0001:0006d46f       ?endBettingRound@CTableView@@QAEX_N@Z 0046e46f f   tableview.obj
 0001:0006d4b3       ?clearBetChips@CTableView@@AAEXXZ 0046e4b3 f   tableview.obj
 0001:0006d530       ?moveBetChipsToPot@CTableView@@AAEXXZ 0046e530 f   tableview.obj
 0001:0006d61e       ?clearActionCompartments@CTableView@@AAEXXZ 0046e61e f   tableview.obj
 0001:0006d6ad       ?recreateLeaveTableButton@CTableView@@QAEXI@Z 0046e6ad f   tableview.obj
 0001:0006d7b7       ?PreTranslateMessage@CTableView@@UAEHPAUtagMSG@@@Z 0046e7b7 f   tableview.obj
 0001:0006d866       ?OnMouseMove@CTableView@@IAEXIVCPoint@@@Z 0046e866 f   tableview.obj
 0001:0006d931       ?OnRButtonUp@CTableView@@IAEXIVCPoint@@@Z 0046e931 f   tableview.obj
 0001:0006d9fe       ?setOnlineStatus@CTableView@@QAEXH@Z 0046e9fe f   tableview.obj
 0001:0006da2e       ?getImageSize@CTableView@@QBE?AVCSize@@XZ 0046ea2e f   tableview.obj
 0001:0006daa1       ?canBuyIn@CTableView@@QBEHXZ 0046eaa1 f   tableview.obj
 0001:0006db81       ?getGameTitle@CTableView@@QBE?AVCString@@XZ 0046eb81 f   tableview.obj
 0001:0006dc63       ?editComment@CTableView@@IAEXPAVPlayer@Base@@@Z 0046ec63 f   tableview.obj
 0001:0006dd0a       ?GetComment@@YA?AVCString@@ABV1@@Z 0046ed0a f   tableview.obj
 0001:0006dfcb       ?getComment@CTableView@@IAE?AVCString@@PAVPlayer@Base@@@Z 0046efcb f   tableview.obj
 0001:0006f4c0       ??0PlayerSlot@@QAE@XZ      004704c0 f i tableview.obj
 0001:0006f570       ??_GCTableView@@MAEPAXI@Z  00470570 f i tableview.obj
 0001:0006f570       ??_ECTableView@@MAEPAXI@Z  00470570 f i tableview.obj
 0001:0006f5c0       ?setHouse@CTableView@@QAEXPAVPlayer@Base@@@Z 004705c0 f i tableview.obj
 0001:0006f5f0       ?setCommunity@CTableView@@QAEXPAVPlayer@Base@@@Z 004705f0 f i tableview.obj
 0001:0006f620       ?LeaveTable@GameLogic@Base@@SAXH@Z 00470620 f i tableview.obj
 0001:0006f640       ?take_rgba@@YAXKAAE000@Z   00470640 f i tableview.obj
 0001:0006f690       ?GetLabelBkgnd@Player@Base@@SAKXZ 00470690 f i tableview.obj
 0001:0006f6d0       ?make_rgba@@YAKEEEE@Z      004706d0 f i tableview.obj
 0001:0006f720       ?Incr@@YAHH@Z              00470720 f i tableview.obj
 0001:0006f750       ?Decr@@YAHH@Z              00470750 f i tableview.obj
 0001:0006f780       ??0LoopGuard@@QAE@XZ       00470780 f i tableview.obj
 0001:0006f7e0       ?visit@LoopGuard@@QAE_NH@Z 004707e0 f i tableview.obj
 0001:0006f840       ??1CFileDialog@@UAE@XZ     00470840 f i tableview.obj
 0001:0006f8c0       ??1CCommonDialog@@UAE@XZ   004708c0 f i tableview.obj
 0001:0006f8f0       ?hasFolded@Player@Base@@QBEHXZ 004708f0 f i tableview.obj
 0001:0006f920       ??M@YA_NABVCChips@@0@Z     00470920 f i tableview.obj
 0001:0006f940       ??0?$vector@UPlayerSlot@@V?$allocator@UPlayerSlot@@@std@@@std@@QAE@IABUPlayerSlot@@ABV?$allocator@UPlayerSlot@@@1@@Z 00470940 f i tableview.obj
 0001:0006f9e0       ??1?$vector@UPlayerSlot@@V?$allocator@UPlayerSlot@@@std@@@std@@QAE@XZ 004709e0 f i tableview.obj
 0001:0006fa80       ?size@?$vector@UPlayerSlot@@V?$allocator@UPlayerSlot@@@std@@@std@@QBEIXZ 00470a80 f i tableview.obj
 0001:0006fae0       ??A?$vector@UPlayerSlot@@V?$allocator@UPlayerSlot@@@std@@@std@@QBEABUPlayerSlot@@I@Z 00470ae0 f i tableview.obj
 0001:0006fb20       ??A?$vector@UPlayerSlot@@V?$allocator@UPlayerSlot@@@std@@@std@@QAEAAUPlayerSlot@@I@Z 00470b20 f i tableview.obj
 0001:0006fb60       ?clear@?$vector@UPlayerSlot@@V?$allocator@UPlayerSlot@@@std@@@std@@QAEXXZ 00470b60 f i tableview.obj
 0001:0006fbb0       ??0?$vector@VCard@Base@@V?$allocator@VCard@Base@@@std@@@std@@QAE@ABV?$allocator@VCard@Base@@@1@@Z 00470bb0 f i tableview.obj
 0001:0006fc00       ??1?$vector@VCard@Base@@V?$allocator@VCard@Base@@@std@@@std@@QAE@XZ 00470c00 f i tableview.obj
 0001:0006fc90       ?begin@?$vector@UPlayerSlot@@V?$allocator@UPlayerSlot@@@std@@@std@@QAEPAUPlayerSlot@@XZ 00470c90 f i tableview.obj
 0001:0006fcb0       ?begin@?$vector@UPlayerSlot@@V?$allocator@UPlayerSlot@@@std@@@std@@QBEPBUPlayerSlot@@XZ 00470cb0 f i tableview.obj
 0001:0006fcd0       ?end@?$vector@UPlayerSlot@@V?$allocator@UPlayerSlot@@@std@@@std@@QAEPAUPlayerSlot@@XZ 00470cd0 f i tableview.obj
 0001:0006fcf0       ?erase@?$vector@UPlayerSlot@@V?$allocator@UPlayerSlot@@@std@@@std@@QAEPAUPlayerSlot@@PAU3@0@Z 00470cf0 f i tableview.obj
 0001:0006fd70       ?_Destroy@?$vector@UPlayerSlot@@V?$allocator@UPlayerSlot@@@std@@@std@@IAEXPAUPlayerSlot@@0@Z 00470d70 f i tableview.obj
 0001:0006fdc0       ?_Ufill@?$vector@UPlayerSlot@@V?$allocator@UPlayerSlot@@@std@@@std@@IAEXPAUPlayerSlot@@IABU3@@Z 00470dc0 f i tableview.obj
 0001:0006fe20       ?allocate@?$allocator@UPlayerSlot@@@std@@QAEPAUPlayerSlot@@IPBX@Z 00470e20 f i tableview.obj
 0001:0006fe60       ?deallocate@?$allocator@UPlayerSlot@@@std@@QAEXPAXI@Z 00470e60 f i tableview.obj
 0001:0006fea0       ?construct@?$allocator@UPlayerSlot@@@std@@QAEXPAUPlayerSlot@@ABU3@@Z 00470ea0 f i tableview.obj
 0001:0006fee0       ?destroy@?$allocator@UPlayerSlot@@@std@@QAEXPAUPlayerSlot@@@Z 00470ee0 f i tableview.obj
 0001:0006ff20       ?random_shuffle@std@@YAXPAVCard@Base@@0@Z 00470f20 f i tableview.obj
 0001:0006ff60       ?copy@std@@YAPAUPlayerSlot@@PAU2@00@Z 00470f60 f i tableview.obj
 0001:0006ffb0       ??4PlayerSlot@@QAEAAU0@ABU0@@Z 00470fb0 f i tableview.obj
 0001:00070060       ?_Allocate@std@@YAPAUPlayerSlot@@HPAU2@@Z 00471060 f i tableview.obj
 0001:000700a0       ?_Construct@std@@YAXPAUPlayerSlot@@ABU2@@Z 004710a0 f i tableview.obj
 0001:00070150       ??0PlayerSlot@@QAE@ABU0@@Z 00471150 f i tableview.obj
 0001:00070200       ?_Destroy@std@@YAXPAUPlayerSlot@@@Z 00471200 f i tableview.obj
 0001:00070210       ?_Dist_type@std@@YAPAHPBVCard@Base@@@Z 00471210 f i tableview.obj
 0001:00070220       ?_Random_shuffle@std@@YAXPAVCard@Base@@0PAH@Z 00471220 f i tableview.obj
 0001:00070330       ?iter_swap@std@@YAXPAVCard@Base@@0@Z 00471330 f i tableview.obj
 0001:00070370       ?_Val_type@std@@YAPAVCard@Base@@PBV23@@Z 00471370 f i tableview.obj
 0001:00070380       ?_Iter_swap@std@@YAXPAVCard@Base@@00@Z 00471380 f i tableview.obj
 0001:000703e0       ??0CWaitDlg@@QAE@PAVCWnd@@@Z 004713e0 f   waitdlg.obj
 0001:0007041b       ?DoDataExchange@CWaitDlg@@MAEXPAVCDataExchange@@@Z 0047141b f   waitdlg.obj
 0001:00070445       ?_GetBaseMessageMap@CWaitDlg@@KGPBUAFX_MSGMAP@@XZ 00471445 f   waitdlg.obj
 0001:0007044f       ?GetMessageMap@CWaitDlg@@MBEPBUAFX_MSGMAP@@XZ 0047144f f   waitdlg.obj
 0001:00070466       ?setPrompt@CWaitDlg@@QAEXPBD@Z 00471466 f   waitdlg.obj
 0001:000704cd       ?OnInitDialog@CWaitDlg@@MAEHXZ 004714cd f   waitdlg.obj
 0001:00070500       ?OnCommand@CWaitDlg@@MAEHIJ@Z 00471500 f   waitdlg.obj
 0001:000705e0       ??_GCWaitDlg@@UAEPAXI@Z    004715e0 f i waitdlg.obj
 0001:000705e0       ??_ECWaitDlg@@UAEPAXI@Z    004715e0 f i waitdlg.obj
 0001:00070630       ??1CWaitDlg@@UAE@XZ        00471630 f i waitdlg.obj
 0001:00070660       _MD5Init                   00471660 f   md5c.obj
 0001:000706a0       _MD5Update                 004716a0 f   md5c.obj
 0001:000707be       _MD5Final                  004717be f   md5c.obj
 0001:00071d90       ?RoundDouble@?%C:\Documents and Settings\administrator\Desktop\poker_source\lib\COMMON\src\chips.cpp136068938@@YANNH@Z 00472d90 f   chips.obj
 0001:00071e5f       ??0CChips@@QAE@XZ          00472e5f f   chips.obj
 0001:00071e7d       ??0CChips@@QAE@ABV0@@Z     00472e7d f   chips.obj
 0001:00071e9e       ??0CChips@@QAE@N@Z         00472e9e f   chips.obj
 0001:00071f8a       ??0CChips@@QAE@KK@Z        00472f8a f   chips.obj
 0001:00071fcc       ?htonl@CChips@@QBE?AVCChips_n@@XZ 00472fcc f   chips.obj
 0001:0007201c       ?htonl_rep@CChips@@QBEKXZ  0047301c f   chips.obj
 0001:0007204f       ??H@YA?AVCChips@@ABV0@0@Z  0047304f f   chips.obj
 0001:000720f3       ??G@YA?AVCChips@@ABV0@0@Z  004730f3 f   chips.obj
 0001:000721f2       ??D@YA?AVCChips@@ABV0@H@Z  004731f2 f   chips.obj
 0001:0007228f       ??K@YA?AVCChips@@ABV0@H@Z  0047328f f   chips.obj
 0001:0007231a       ??0CChips_n@@QAE@K@Z       0047331a f   chips.obj
 0001:00072339       ?ntohl@CChips_n@@QBE?AVCChips@@XZ 00473339 f   chips.obj
 0001:00072530       ?setDollars@CChips@@QAEXK@Z 00473530 f i chips.obj
 0001:000725d0       ?setCents@CChips@@QAEXK@Z  004735d0 f i chips.obj
 0001:00072650       ??0CStringOutput@@QAE@XZ   00473650 f   stringoutput.obj
 0001:000726e6       ??1CStringOutput@@UAE@XZ   004736e6 f   stringoutput.obj
 0001:000727d0       ??_GCStringOutput@@UAEPAXI@Z 004737d0 f i stringoutput.obj
 0001:000727d0       ??_ECStringOutput@@UAEPAXI@Z 004737d0 f i stringoutput.obj
 0001:00072820       ?EnumWndFunc@@YGHPAUHWND__@@J@Z 00473820 f   Poker.obj
 0001:000728d0       ?CountInstances@@YAHXZ     004738d0 f   Poker.obj
 0001:00072968       ?SanityCheckMax@?%C:\Documents and Settings\administrator\Desktop\poker_source\client\shell\Poker.cpp217665238@@YAXAAKK@Z 00473968 f   Poker.obj
 0001:0007297f       ?LoadGameInterfaces@?%C:\Documents and Settings\administrator\Desktop\poker_source\client\shell\Poker.cpp217665238@@YAHPAUHINSTANCE__@@@Z 0047397f f   Poker.obj
 0001:00072a31       ?DoCommandLine@?%C:\Documents and Settings\administrator\Desktop\poker_source\client\shell\Poker.cpp217665238@@YAXPBD@Z 00473a31 f   Poker.obj
 0001:00073222       ?_GetBaseMessageMap@CPokerApp@@KGPBUAFX_MSGMAP@@XZ 00474222 f   Poker.obj
 0001:0007322c       ?GetMessageMap@CPokerApp@@MBEPBUAFX_MSGMAP@@XZ 0047422c f   Poker.obj
 0001:00073243       ??0CPokerApp@@QAE@XZ       00474243 f   Poker.obj
 0001:00073279       ?InitInstance@CPokerApp@@UAEHXZ 00474279 f   Poker.obj
 0001:0007341f       ?OnIdle@CPokerApp@@UAEHJ@Z 0047441f f   Poker.obj
 0001:00073504       ?Run@CPokerApp@@UAEHXZ     00474504 f   Poker.obj
 0001:00073528       ?ExitInstance@CPokerApp@@UAEHXZ 00474528 f   Poker.obj
 0001:00073587       ?PreTranslateMessage@CPokerApp@@UAEHPAUtagMSG@@@Z 00474587 f   Poker.obj
 0001:00073940       ??1CPokerApp@@UAE@XZ       00474940 f i Poker.obj
 0001:00073970       ?SetObserver@Global@@SAX_N@Z 00474970 f i Poker.obj
 0001:00073990       ??_GCPokerApp@@UAEPAXI@Z   00474990 f i Poker.obj
 0001:00073990       ??_ECPokerApp@@UAEPAXI@Z   00474990 f i Poker.obj
 0001:000739dc       ??1CString@@QAE@XZ         004749dc f   mfc42d:MFC42D.DLL
 0001:000739e2       ??YCString@@QAEABV0@ABV0@@Z 004749e2 f   mfc42d:MFC42D.DLL
 0001:000739e8       ??H@YG?AVCString@@ABV0@0@Z 004749e8 f   mfc42d:MFC42D.DLL
 0001:000739ee       ??0CString@@QAE@PBD@Z      004749ee f   mfc42d:MFC42D.DLL
 0001:000739f4       ?Format@CString@@QAAXPBDZZ 004749f4 f   mfc42d:MFC42D.DLL
 0001:000739fa       ??0CString@@QAE@ABV0@@Z    004749fa f   mfc42d:MFC42D.DLL
 0001:00073a00       ??0CSize@@QAE@HH@Z         00474a00 f   mfc42d:MFC42D.DLL
 0001:00073a06       ??3@YAXPAX@Z               00474a06 f   mfc42d:MFC42D.DLL
 0001:00073a0c       ?DrawTextA@CDC@@QAEHABVCString@@PAUtagRECT@@I@Z 00474a0c f   mfc42d:MFC42D.DLL
 0001:00073a12       ??BCRect@@QAEPAUtagRECT@@XZ 00474a12 f   mfc42d:MFC42D.DLL
 0001:00073a18       ??HCPoint@@QBE?AV0@UtagPOINT@@@Z 00474a18 f   mfc42d:MFC42D.DLL
 0001:00073a1e       ?TopLeft@CRect@@QAEAAVCPoint@@XZ 00474a1e f   mfc42d:MFC42D.DLL
 0001:00073a24       ??0CPoint@@QAE@HH@Z        00474a24 f   mfc42d:MFC42D.DLL
 0001:00073a2a       ?SetBkMode@CDC@@QAEHH@Z    00474a2a f   mfc42d:MFC42D.DLL
 0001:00073a30       ??BCString@@QBEPBDXZ       00474a30 f   mfc42d:MFC42D.DLL
 0001:00073a36       ?UnionRect@CRect@@QAEHPBUtagRECT@@0@Z 00474a36 f   mfc42d:MFC42D.DLL
 0001:00073a3c       ??0CRect@@QAE@XZ           00474a3c f   mfc42d:MFC42D.DLL
 0001:00073a42       ??0CRect@@QAE@UtagPOINT@@UtagSIZE@@@Z 00474a42 f   mfc42d:MFC42D.DLL
 0001:00073a48       ??0CRect@@QAE@UtagPOINT@@0@Z 00474a48 f   mfc42d:MFC42D.DLL
 0001:00073a4e       ?AfxAssertFailedLine@@YGHPBDH@Z 00474a4e f   mfc42d:MFC42D.DLL
 0001:00073a54       ?OffsetRect@CRect@@QAEXHH@Z 00474a54 f   mfc42d:MFC42D.DLL
 0001:00073a5a       ?Height@CRect@@QBEHXZ      00474a5a f   mfc42d:MFC42D.DLL
 0001:00073a60       ??1CDC@@UAE@XZ             00474a60 f   mfc42d:MFC42D.DLL
 0001:00073a66       ?GetSafeHdc@CDC@@QBEPAUHDC__@@XZ 00474a66 f   mfc42d:MFC42D.DLL
 0001:00073a6c       ?Width@CRect@@QBEHXZ       00474a6c f   mfc42d:MFC42D.DLL
 0001:00073a72       ?Size@CRect@@QBE?AVCSize@@XZ 00474a72 f   mfc42d:MFC42D.DLL
 0001:00073a78       ??0CString@@QAE@XZ         00474a78 f   mfc42d:MFC42D.DLL
 0001:00073a7e       ?SelectObject@CDC@@UAEPAVCFont@@PAV2@@Z 00474a7e f   mfc42d:MFC42D.DLL
 0001:00073a84       ?CreateCompatibleDC@CDC@@QAEHPAV1@@Z 00474a84 f   mfc42d:MFC42D.DLL
 0001:00073a8a       ??0CDC@@QAE@XZ             00474a8a f   mfc42d:MFC42D.DLL
 0001:00073a90       ??8CSize@@QBEHUtagSIZE@@@Z 00474a90 f   mfc42d:MFC42D.DLL
 0001:00073a96       ??0CRect@@QAE@HHHH@Z       00474a96 f   mfc42d:MFC42D.DLL
 0001:00073a9c       ?PtInRect@CRect@@QBEHUtagPOINT@@@Z 00474a9c f   mfc42d:MFC42D.DLL
 0001:00073aa2       ?InvalidateRect@CWnd@@QAEXPBUtagRECT@@H@Z 00474aa2 f   mfc42d:MFC42D.DLL
 0001:00073aa8       ??2@YAPAXI@Z               00474aa8 f   mfc42d:MFC42D.DLL
 0001:00073aae       ?GetSafeHandle@CGdiObject@@QBEPAXXZ 00474aae f   mfc42d:MFC42D.DLL
 0001:00073ab4       ?Detach@CGdiObject@@QAEPAXXZ 00474ab4 f   mfc42d:MFC42D.DLL
 0001:00073aba       ?DeleteObject@CGdiObject@@QAEHXZ 00474aba f   mfc42d:MFC42D.DLL
 0001:00073ac0       ?GetBitmap@CBitmap@@QAEHPAUtagBITMAP@@@Z 00474ac0 f   mfc42d:MFC42D.DLL
 0001:00073ac6       ??1CBitmap@@UAE@XZ         00474ac6 f   mfc42d:MFC42D.DLL
 0001:00073acc       ?Attach@CGdiObject@@QAEHPAX@Z 00474acc f   mfc42d:MFC42D.DLL
 0001:00073ad2       ??0CBitmap@@QAE@XZ         00474ad2 f   mfc42d:MFC42D.DLL
 0001:00073ad8       ?BitBlt@CDC@@QAEHHHHHPAV1@HHK@Z 00474ad8 f   mfc42d:MFC42D.DLL
 0001:00073ade       ?SelectObject@CDC@@QAEPAVCBitmap@@PAV2@@Z 00474ade f   mfc42d:MFC42D.DLL
 0001:00073ae4       ??9CPoint@@QBEHUtagPOINT@@@Z 00474ae4 f   mfc42d:MFC42D.DLL
 0001:00073aea       ?AfxAssertValidObject@@YGXPBVCObject@@PBDH@Z 00474aea f   mfc42d:MFC42D.DLL
 0001:00073af0       ?GetSafeHwnd@CWnd@@QBEPAUHWND__@@XZ 00474af0 f   mfc42d:MFC42D.DLL
 0001:00073af6       ??8@YG_NABVCString@@0@Z    00474af6 f   mfc42d:MFC42D.DLL
 0001:00073afc       ?MessageBoxA@CWnd@@QAEHPBD0I@Z 00474afc f   mfc42d:MFC42D.DLL
 0001:00073b02       ?UpdateWindow@CWnd@@QAEXXZ 00474b02 f   mfc42d:MFC42D.DLL
 0001:00073b08       ?AfxMessageBox@@YGHPBDII@Z 00474b08 f   mfc42d:MFC42D.DLL
 0001:00073b0e       ??0CPoint@@QAE@UtagSIZE@@@Z 00474b0e f   mfc42d:MFC42D.DLL
 0001:00073b14       ??GCPoint@@QBE?AVCSize@@UtagPOINT@@@Z 00474b14 f   mfc42d:MFC42D.DLL
 0001:00073b1a       ?Invalidate@CWnd@@QAEXH@Z  00474b1a f   mfc42d:MFC42D.DLL
 0001:00073b20       ??3@YAXPAXPBDH@Z           00474b20 f   mfc42d:MFC42D.DLL
 0001:00073b26       ?AfxGetThread@@YGPAVCWinThread@@XZ 00474b26 f   mfc42d:MFC42D.DLL
 0001:00073b2c       ??2@YAPAXIPBDH@Z           00474b2c f   mfc42d:MFC42D.DLL
 0001:00073b32       ?SetAt@CString@@QAEXHD@Z   00474b32 f   mfc42d:MFC42D.DLL
 0001:00073b38       ??ACString@@QBEDH@Z        00474b38 f   mfc42d:MFC42D.DLL
 0001:00073b3e       ?GetLength@CString@@QBEHXZ 00474b3e f   mfc42d:MFC42D.DLL
 0001:00073b44       ??4CString@@QAEABV0@ABV0@@Z 00474b44 f   mfc42d:MFC42D.DLL
 0001:00073b4a       ?IsEmpty@CString@@QBEHXZ   00474b4a f   mfc42d:MFC42D.DLL
 0001:00073b50       ?ReleaseDC@CWnd@@QAEHPAVCDC@@@Z 00474b50 f   mfc42d:MFC42D.DLL
 0001:00073b56       ?GetDC@CWnd@@QAEPAVCDC@@XZ 00474b56 f   mfc42d:MFC42D.DLL
 0001:00073b5c       ?AfxGetMainWnd@@YGPAVCWnd@@XZ 00474b5c f   mfc42d:MFC42D.DLL
 0001:00073b62       ?IsKindOf@CObject@@QBEHPBUCRuntimeClass@@@Z 00474b62 f   mfc42d:MFC42D.DLL
 0001:00073b68       ??1CFile@@UAE@XZ           00474b68 f   mfc42d:MFC42D.DLL
 0001:00073b6e       ?Close@CFile@@UAEXXZ       00474b6e f   mfc42d:MFC42D.DLL
 0001:00073b74       ?Write@CFile@@UAEXPBXI@Z   00474b74 f   mfc42d:MFC42D.DLL
 0001:00073b7a       ??0CFile@@QAE@PBDI@Z       00474b7a f   mfc42d:MFC42D.DLL
 0001:00073b80       ??0AFX_EXCEPTION_LINK@@QAE@XZ 00474b80 f   mfc42d:MFC42D.DLL
 0001:00073b86       ??0CFile@@QAE@XZ           00474b86 f   mfc42d:MFC42D.DLL
 0001:00073b8c       ??H@YG?AVCString@@ABV0@PBD@Z 00474b8c f   mfc42d:MFC42D.DLL
 0001:00073b92       ?AfxTryCleanup@@YGXXZ      00474b92 f   mfc42d:MFC42D.DLL
 0001:00073b98       ??4CString@@QAEABV0@PBD@Z  00474b98 f   mfc42d:MFC42D.DLL
 0001:00073b9e       ?DoModal@CDialog@@UAEHXZ   00474b9e f   mfc42d:MFC42D.DLL
 0001:00073ba4       ??1CDialog@@UAE@XZ         00474ba4 f   mfc42d:MFC42D.DLL
 0001:00073baa       ??YCString@@QAEABV0@PBD@Z  00474baa f   mfc42d:MFC42D.DLL
 0001:00073bb0       ?AfxBeginThread@@YGPAVCWinThread@@P6AIPAX@Z0HIKPAU_SECURITY_ATTRIBUTES@@@Z 00474bb0 f   mfc42d:MFC42D.DLL
 0001:00073bb6       ?AfxTrace@@YAXPBDZZ        00474bb6 f   mfc42d:MFC42D.DLL
 0001:00073bbc       ??8@YG_NABVCString@@PBD@Z  00474bbc f   mfc42d:MFC42D.DLL
 0001:00073bc2       ?SetTimer@CWnd@@QAEIIIP6GXPAUHWND__@@IIK@Z@Z 00474bc2 f   mfc42d:MFC42D.DLL
 0001:00073bc8       ?LoadBitmapA@CBitmap@@QAEHI@Z 00474bc8 f   mfc42d:MFC42D.DLL
 0001:00073bce       ?CreateBitmapIndirect@CBitmap@@QAEHPAUtagBITMAP@@@Z 00474bce f   mfc42d:MFC42D.DLL
 0001:00073bd4       ?CreateCompatibleBitmap@CBitmap@@QAEHPAVCDC@@HH@Z 00474bd4 f   mfc42d:MFC42D.DLL
 0001:00073bda       ??H@YG?AVCString@@PBDABV0@@Z 00474bda f   mfc42d:MFC42D.DLL
 0001:00073be0       ?TextOutA@CDC@@QAEHHHABVCString@@@Z 00474be0 f   mfc42d:MFC42D.DLL
 0001:00073be6       ??1CPen@@UAE@XZ            00474be6 f   mfc42d:MFC42D.DLL
 0001:00073bec       ?LineTo@CDC@@QAEHHH@Z      00474bec f   mfc42d:MFC42D.DLL
 0001:00073bf2       ?MoveTo@CDC@@QAE?AVCPoint@@HH@Z 00474bf2 f   mfc42d:MFC42D.DLL
 0001:00073bf8       ?SelectObject@CDC@@QAEPAVCPen@@PAV2@@Z 00474bf8 f   mfc42d:MFC42D.DLL
 0001:00073bfe       ??0CPen@@QAE@HHK@Z         00474bfe f   mfc42d:MFC42D.DLL
 0001:00073c04       ??1CWindowDC@@UAE@XZ       00474c04 f   mfc42d:MFC42D.DLL
 0001:00073c0a       ??0CWindowDC@@QAE@PAVCWnd@@@Z 00474c0a f   mfc42d:MFC42D.DLL
 0001:00073c10       ?PatBlt@CDC@@QAEHHHHHK@Z   00474c10 f   mfc42d:MFC42D.DLL
 0001:00073c16       ??1CWaitCursor@@QAE@XZ     00474c16 f   mfc42d:MFC42D.DLL
 0001:00073c1c       ??0CWaitCursor@@QAE@XZ     00474c1c f   mfc42d:MFC42D.DLL
 0001:00073c22       ?FromHandle@CDC@@SGPAV1@PAUHDC__@@@Z 00474c22 f   mfc42d:MFC42D.DLL
 0001:00073c28       ?StretchBlt@CDC@@QAEHHHHHPAV1@HHHHK@Z 00474c28 f   mfc42d:MFC42D.DLL
 0001:00073c2e       ?Remove@CFile@@SGXPBD@Z    00474c2e f   mfc42d:MFC42D.DLL
 0001:00073c34       ?GetWindowPlacement@CWnd@@QBEHPAUtagWINDOWPLACEMENT@@@Z 00474c34 f   mfc42d:MFC42D.DLL
 0001:00073c3a       ?GetActiveView@CFrameWnd@@QBEPAVCView@@XZ 00474c3a f   mfc42d:MFC42D.DLL
 0001:00073c40       ?Left@CString@@QBE?AV1@H@Z 00474c40 f   mfc42d:MFC42D.DLL
 0001:00073c46       ??9@YG_NABVCString@@PBD@Z  00474c46 f   mfc42d:MFC42D.DLL
 0001:00073c4c       ?InflateRect@CRect@@QAEXHH@Z 00474c4c f   mfc42d:MFC42D.DLL
 0001:00073c52       ??0CPoint@@QAE@XZ          00474c52 f   mfc42d:MFC42D.DLL
 0001:00073c58       ?NormalizeRect@CRect@@QAEXXZ 00474c58 f   mfc42d:MFC42D.DLL
 0001:00073c5e       ??0CSize@@QAE@XZ           00474c5e f   mfc42d:MFC42D.DLL
 0001:00073c64       ??3CObject@@SGXPAX@Z       00474c64 f   mfc42d:MFC42D.DLL
 0001:00073c6a       ?ShowWindow@CWnd@@QAEHH@Z  00474c6a f   mfc42d:MFC42D.DLL
 0001:00073c70       ?Create@CDialog@@QAEHIPAVCWnd@@@Z 00474c70 f   mfc42d:MFC42D.DLL
 0001:00073c76       ??2CObject@@SGPAXI@Z       00474c76 f   mfc42d:MFC42D.DLL
 0001:00073c7c       ?SetFocus@CWnd@@QAEPAV1@XZ 00474c7c f   mfc42d:MFC42D.DLL
 0001:00073c82       ?GetFocus@CWnd@@SGPAV1@XZ  00474c82 f   mfc42d:MFC42D.DLL
 0001:00073c88       ?CenterWindow@CWnd@@QAEXPAV1@@Z 00474c88 f   mfc42d:MFC42D.DLL
 0001:00073c8e       ?CompareNoCase@CString@@QBEHPBD@Z 00474c8e f   mfc42d:MFC42D.DLL
 0001:00073c94       ?Right@CString@@QBE?AV1@H@Z 00474c94 f   mfc42d:MFC42D.DLL
 0001:00073c9a       ??BCBitmap@@QBEPAUHBITMAP__@@XZ 00474c9a f   mfc42d:MFC42D.DLL
 0001:00073ca0       ?FillSolidRect@CDC@@QAEXHHHHK@Z 00474ca0 f   mfc42d:MFC42D.DLL
 0001:00073ca6       ?Read@CFile@@UAEIPAXI@Z    00474ca6 f   mfc42d:MFC42D.DLL
 0001:00073cac       ?Open@CFile@@UAEHPBDIPAVCFileException@@@Z 00474cac f   mfc42d:MFC42D.DLL
 0001:00073cb2       ?PreInitDialog@CDialog@@MAEXXZ 00474cb2 f   mfc42d:MFC42D.DLL
 0001:00073cb8       ?OnCancel@CDialog@@MAEXXZ  00474cb8 f   mfc42d:MFC42D.DLL
 0001:00073cbe       ?OnOK@CDialog@@MAEXXZ      00474cbe f   mfc42d:MFC42D.DLL
 0001:00073cc4       ?OnSetFont@CDialog@@UAEXPAVCFont@@@Z 00474cc4 f   mfc42d:MFC42D.DLL
 0001:00073cca       ?OnInitDialog@CDialog@@UAEHXZ 00474cca f   mfc42d:MFC42D.DLL
 0001:00073cd0       ?SetOccDialogInfo@CDialog@@MAEHPAU_AFX_OCC_DIALOG_INFO@@@Z 00474cd0 f   mfc42d:MFC42D.DLL
 0001:00073cd6       ?IsFrameWnd@CWnd@@UBEHXZ   00474cd6 f   mfc42d:MFC42D.DLL
 0001:00073cdc       ?CheckAutoCenter@CDialog@@UAEHXZ 00474cdc f   mfc42d:MFC42D.DLL
 0001:00073ce2       ?OnChildNotify@CWnd@@MAEHIIJPAJ@Z 00474ce2 f   mfc42d:MFC42D.DLL
 0001:00073ce8       ?PostNcDestroy@CWnd@@MAEXXZ 00474ce8 f   mfc42d:MFC42D.DLL
 0001:00073cee       ?DefWindowProcA@CWnd@@MAEJIIJ@Z 00474cee f   mfc42d:MFC42D.DLL
 0001:00073cf4       ?OnWndMsg@CWnd@@MAEHIIJPAJ@Z 00474cf4 f   mfc42d:MFC42D.DLL
 0001:00073cfa       ?WindowProc@CWnd@@MAEJIIJ@Z 00474cfa f   mfc42d:MFC42D.DLL
 0001:00073d00       ?OnAmbientProperty@CWnd@@UAEHPAVCOleControlSite@@JPAUtagVARIANT@@@Z 00474d00 f   mfc42d:MFC42D.DLL
 0001:00073d06       ?PreTranslateMessage@CDialog@@UAEHPAUtagMSG@@@Z 00474d06 f   mfc42d:MFC42D.DLL
 0001:00073d0c       ?EndModalState@CWnd@@UAEXXZ 00474d0c f   mfc42d:MFC42D.DLL
 0001:00073d12       ?BeginModalState@CWnd@@UAEXXZ 00474d12 f   mfc42d:MFC42D.DLL
 0001:00073d18       ?GetSuperWndProcAddr@CWnd@@MAEPAP6GJPAUHWND__@@IIJ@ZXZ 00474d18 f   mfc42d:MFC42D.DLL
 0001:00073d1e       ?OnNotify@CWnd@@MAEHIJPAJ@Z 00474d1e f   mfc42d:MFC42D.DLL
 0001:00073d24       ?OnCommand@CWnd@@MAEHIJ@Z  00474d24 f   mfc42d:MFC42D.DLL
 0001:00073d2a       ?EndModalLoop@CWnd@@UAEXH@Z 00474d2a f   mfc42d:MFC42D.DLL
 0001:00073d30       ?ContinueModal@CWnd@@UAEHXZ 00474d30 f   mfc42d:MFC42D.DLL
 0001:00073d36       ?WinHelpA@CWnd@@UAEXKI@Z   00474d36 f   mfc42d:MFC42D.DLL
 0001:00073d3c       ?GetScrollBarCtrl@CWnd@@UBEPAVCScrollBar@@H@Z 00474d3c f   mfc42d:MFC42D.DLL
 0001:00073d42       ?OnToolHitTest@CWnd@@UBEHVCPoint@@PAUtagTOOLINFOA@@@Z 00474d42 f   mfc42d:MFC42D.DLL
 0001:00073d48       ?CalcWindowRect@CWnd@@UAEXPAUtagRECT@@I@Z 00474d48 f   mfc42d:MFC42D.DLL
 0001:00073d4e       ?PreCreateWindow@CWnd@@UAEHAAUtagCREATESTRUCTA@@@Z 00474d4e f   mfc42d:MFC42D.DLL
 0001:00073d54       ?DestroyWindow@CWnd@@UAEHXZ 00474d54 f   mfc42d:MFC42D.DLL
 0001:00073d5a       ?Create@CWnd@@UAEHPBD0KABUtagRECT@@PAV1@IPAUCCreateContext@@@Z 00474d5a f   mfc42d:MFC42D.DLL
 0001:00073d60       ?PreSubclassWindow@CWnd@@UAEXXZ 00474d60 f   mfc42d:MFC42D.DLL
 0001:00073d66       ?GetConnectionHook@CCmdTarget@@MAEPAUIConnectionPoint@@ABU_GUID@@@Z 00474d66 f   mfc42d:MFC42D.DLL
 0001:00073d6c       ?GetExtraConnectionPoints@CCmdTarget@@MAEHPAVCPtrArray@@@Z 00474d6c f   mfc42d:MFC42D.DLL
 0001:00073d72       ?GetInterfaceHook@CCmdTarget@@UAEPAUIUnknown@@PBX@Z 00474d72 f   mfc42d:MFC42D.DLL
 0001:00073d78       ?OnCreateAggregates@CCmdTarget@@UAEHXZ 00474d78 f   mfc42d:MFC42D.DLL
 0001:00073d7e       ?GetEventSinkMap@CCmdTarget@@MBEPBUAFX_EVENTSINKMAP@@XZ 00474d7e f   mfc42d:MFC42D.DLL
 0001:00073d84       ?GetInterfaceMap@CCmdTarget@@MBEPBUAFX_INTERFACEMAP@@XZ 00474d84 f   mfc42d:MFC42D.DLL
 0001:00073d8a       ?GetConnectionMap@CCmdTarget@@MBEPBUAFX_CONNECTIONMAP@@XZ 00474d8a f   mfc42d:MFC42D.DLL
 0001:00073d90       ?GetDispatchMap@CCmdTarget@@MBEPBUAFX_DISPMAP@@XZ 00474d90 f   mfc42d:MFC42D.DLL
 0001:00073d96       ?GetCommandMap@CCmdTarget@@MBEPBUAFX_OLECMDMAP@@XZ 00474d96 f   mfc42d:MFC42D.DLL
 0001:00073d9c       ?GetTypeLib@CCmdTarget@@UAEJKPAPAUITypeLib@@@Z 00474d9c f   mfc42d:MFC42D.DLL
 0001:00073da2       ?GetTypeLibCache@CCmdTarget@@UAEPAVCTypeLibCache@@XZ 00474da2 f   mfc42d:MFC42D.DLL
 0001:00073da8       ?GetTypeInfoCount@CCmdTarget@@UAEIXZ 00474da8 f   mfc42d:MFC42D.DLL
 0001:00073dae       ?GetDispatchIID@CCmdTarget@@UAEHPAU_GUID@@@Z 00474dae f   mfc42d:MFC42D.DLL
 0001:00073db4       ?IsInvokeAllowed@CCmdTarget@@UAEHJ@Z 00474db4 f   mfc42d:MFC42D.DLL
 0001:00073dba       ?OnFinalRelease@CWnd@@UAEXXZ 00474dba f   mfc42d:MFC42D.DLL
 0001:00073dc0       ?OnCmdMsg@CDialog@@UAEHIHPAXPAUAFX_CMDHANDLERINFO@@@Z 00474dc0 f   mfc42d:MFC42D.DLL
 0001:00073dc6       ?Dump@CDialog@@UBEXAAVCDumpContext@@@Z 00474dc6 f   mfc42d:MFC42D.DLL
 0001:00073dcc       ?AssertValid@CDialog@@UBEXXZ 00474dcc f   mfc42d:MFC42D.DLL
 0001:00073dd2       ?Serialize@CObject@@UAEXAAVCArchive@@@Z 00474dd2 f   mfc42d:MFC42D.DLL
 0001:00073dd8       ?GetRuntimeClass@CDialog@@UBEPAUCRuntimeClass@@XZ 00474dd8 f   mfc42d:MFC42D.DLL
 0001:00073dde       ??1CBrush@@UAE@XZ          00474dde f   mfc42d:MFC42D.DLL
 0001:00073de4       ??0CFont@@QAE@XZ           00474de4 f   mfc42d:MFC42D.DLL
 0001:00073dea       ??0CBrush@@QAE@XZ          00474dea f   mfc42d:MFC42D.DLL
 0001:00073df0       ??0CDialog@@QAE@IPAVCWnd@@@Z 00474df0 f   mfc42d:MFC42D.DLL
 0001:00073df6       ??1CFont@@UAE@XZ           00474df6 f   mfc42d:MFC42D.DLL
 0001:00073dfc       ?DoDataExchange@CWnd@@MAEXPAVCDataExchange@@@Z 00474dfc f   mfc42d:MFC42D.DLL
 0001:00073e02       ?OnEraseBkgnd@CWnd@@IAEHPAVCDC@@@Z 00474e02 f   mfc42d:MFC42D.DLL
 0001:00073e08       ??1CPaintDC@@UAE@XZ        00474e08 f   mfc42d:MFC42D.DLL
 0001:00073e0e       ?DrawTextA@CDC@@UAEHPBDHPAUtagRECT@@I@Z 00474e0e f   mfc42d:MFC42D.DLL
 0001:00073e14       ?CreateStockObject@CGdiObject@@QAEHH@Z 00474e14 f   mfc42d:MFC42D.DLL
 0001:00073e1a       ?ScreenToClient@CWnd@@QBEXPAUtagRECT@@@Z 00474e1a f   mfc42d:MFC42D.DLL
 0001:00073e20       ?GetWindowRect@CWnd@@QBEXPAUtagRECT@@@Z 00474e20 f   mfc42d:MFC42D.DLL
 0001:00073e26       ?GetDlgItem@CWnd@@QBEPAV1@H@Z 00474e26 f   mfc42d:MFC42D.DLL
 0001:00073e2c       ??0CPaintDC@@QAE@PAVCWnd@@@Z 00474e2c f   mfc42d:MFC42D.DLL
 0001:00073e32       ??1CSliderCtrl@@UAE@XZ     00474e32 f   mfc42d:MFC42D.DLL
 0001:00073e38       ?CreateSolidBrush@CBrush@@QAEHK@Z 00474e38 f   mfc42d:MFC42D.DLL
 0001:00073e3e       ??0CSliderCtrl@@QAE@XZ     00474e3e f   mfc42d:MFC42D.DLL
 0001:00073e44       ??0CDialog@@QAE@XZ         00474e44 f   mfc42d:MFC42D.DLL
 0001:00073e4a       ??1CButton@@UAE@XZ         00474e4a f   mfc42d:MFC42D.DLL
 0001:00073e50       ?EnableWindow@CWnd@@QAEHH@Z 00474e50 f   mfc42d:MFC42D.DLL
 0001:00073e56       ?Create@CButton@@QAEHPBDKABUtagRECT@@PAVCWnd@@I@Z 00474e56 f   mfc42d:MFC42D.DLL
 0001:00073e5c       ?SetButtonStyle@CButton@@QAEXIH@Z 00474e5c f   mfc42d:MFC42D.DLL
 0001:00073e62       ?GetButtonStyle@CButton@@QBEIXZ 00474e62 f   mfc42d:MFC42D.DLL
 0001:00073e68       ?SubclassDlgItem@CWnd@@QAEHIPAV1@@Z 00474e68 f   mfc42d:MFC42D.DLL
 0001:00073e6e       ?PostMessageA@CWnd@@QAEHIIJ@Z 00474e6e f   mfc42d:MFC42D.DLL
 0001:00073e74       ?GetParent@CWnd@@QBEPAV1@XZ 00474e74 f   mfc42d:MFC42D.DLL
 0001:00073e7a       ?SetWindowTextA@CWnd@@QAEXPBD@Z 00474e7a f   mfc42d:MFC42D.DLL
 0001:00073e80       ?EnableToolTips@CWnd@@QAEHH@Z 00474e80 f   mfc42d:MFC42D.DLL
 0001:00073e86       ?_mbstowcsz@@YAHPAGPBDI@Z  00474e86 f   mfc42d:MFC42D.DLL
 0001:00073e8c       ?LoadStringA@CString@@QAEHI@Z 00474e8c f   mfc42d:MFC42D.DLL
 0001:00073e92       ?IsWindowEnabled@CWnd@@QBEHXZ 00474e92 f   mfc42d:MFC42D.DLL
 0001:00073e98       ?SetForegroundWindow@CWnd@@QAEHXZ 00474e98 f   mfc42d:MFC42D.DLL
 0001:00073e9e       ?GetForegroundWindow@CWnd@@SGPAV1@XZ 00474e9e f   mfc42d:MFC42D.DLL
 0001:00073ea4       ?SetPos@CSliderCtrl@@QAEXH@Z 00474ea4 f   mfc42d:MFC42D.DLL
 0001:00073eaa       ?SetRange@CSliderCtrl@@QAEXHHH@Z 00474eaa f   mfc42d:MFC42D.DLL
 0001:00073eb0       ?GetWindowTextA@CWnd@@QBEXAAVCString@@@Z 00474eb0 f   mfc42d:MFC42D.DLL
 0001:00073eb6       ?OnCtlColor@CDialog@@IAEPAUHBRUSH__@@PAVCDC@@PAVCWnd@@I@Z 00474eb6 f   mfc42d:MFC42D.DLL
 0001:00073ebc       ?MoveWindow@CWnd@@QAEXPBUtagRECT@@H@Z 00474ebc f   mfc42d:MFC42D.DLL
 0001:00073ec2       ?ModifyStyle@CWnd@@QAEHKKI@Z 00474ec2 f   mfc42d:MFC42D.DLL
 0001:00073ec8       ?GetStyle@CWnd@@QBEKXZ     00474ec8 f   mfc42d:MFC42D.DLL
 0001:00073ece       ?OnSize@CWnd@@IAEXIHH@Z    00474ece f   mfc42d:MFC42D.DLL
 0001:00073ed4       ?Find@CString@@QBEHPBD@Z   00474ed4 f   mfc42d:MFC42D.DLL
 0001:00073eda       ?GetPos@CSliderCtrl@@QBEHXZ 00474eda f   mfc42d:MFC42D.DLL
 0001:00073ee0       ?OnHScroll@CWnd@@IAEXIIPAVCScrollBar@@@Z 00474ee0 f   mfc42d:MFC42D.DLL
 0001:00073ee6       ?SetOccDialogInfo@CWnd@@MAEHPAU_AFX_OCC_DIALOG_INFO@@@Z 00474ee6 f   mfc42d:MFC42D.DLL
 0001:00073eec       ?CheckAutoCenter@CWnd@@UAEHXZ 00474eec f   mfc42d:MFC42D.DLL
 0001:00073ef2       ?OnChildNotify@CButton@@MAEHIIJPAJ@Z 00474ef2 f   mfc42d:MFC42D.DLL
 0001:00073ef8       ?PreTranslateMessage@CWnd@@UAEHPAUtagMSG@@@Z 00474ef8 f   mfc42d:MFC42D.DLL
 0001:00073efe       ?OnCmdMsg@CCmdTarget@@UAEHIHPAXPAUAFX_CMDHANDLERINFO@@@Z 00474efe f   mfc42d:MFC42D.DLL
 0001:00073f04       ?Dump@CWnd@@UBEXAAVCDumpContext@@@Z 00474f04 f   mfc42d:MFC42D.DLL
 0001:00073f0a       ?AssertValid@CWnd@@UBEXXZ  00474f0a f   mfc42d:MFC42D.DLL
 0001:00073f10       ?GetRuntimeClass@CButton@@UBEPAUCRuntimeClass@@XZ 00474f10 f   mfc42d:MFC42D.DLL
 0001:00073f16       ?CreateFontIndirectA@CFont@@QAEHPBUtagLOGFONTA@@@Z 00474f16 f   mfc42d:MFC42D.DLL
 0001:00073f1c       ?GetLogFont@CFont@@QAEHPAUtagLOGFONTA@@@Z 00474f1c f   mfc42d:MFC42D.DLL
 0001:00073f22       ??0CButton@@QAE@XZ         00474f22 f   mfc42d:MFC42D.DLL
 0001:00073f28       ??0CRect@@QAE@ABUtagRECT@@@Z 00474f28 f   mfc42d:MFC42D.DLL
 0001:00073f2e       ?GetState@CButton@@QBEIXZ  00474f2e f   mfc42d:MFC42D.DLL
 0001:00073f34       ?OnMeasureItem@CWnd@@IAEXHPAUtagMEASUREITEMSTRUCT@@@Z 00474f34 f   mfc42d:MFC42D.DLL
 0001:00073f3a       ?TopLeft@CRect@@QBEABVCPoint@@XZ 00474f3a f   mfc42d:MFC42D.DLL
 0001:00073f40       ?BottomRight@CRect@@QBEABVCPoint@@XZ 00474f40 f   mfc42d:MFC42D.DLL
 0001:00073f46       ?DDX_Text@@YGXPAVCDataExchange@@HAAVCString@@@Z 00474f46 f   mfc42d:MFC42D.DLL
 0001:00073f4c       ?DDV_MinMaxDouble@@YGXPAVCDataExchange@@ABNNN@Z 00474f4c f   mfc42d:MFC42D.DLL
 0001:00073f52       ?DDX_Text@@YGXPAVCDataExchange@@HAAN@Z 00474f52 f   mfc42d:MFC42D.DLL
 0001:00073f58       ??3CObject@@SGXPAXPBDH@Z   00474f58 f   mfc42d:MFC42D.DLL
 0001:00073f5e       ??1CTabCtrl@@UAE@XZ        00474f5e f   mfc42d:MFC42D.DLL
 0001:00073f64       ??2CObject@@SGPAXIPBDH@Z   00474f64 f   mfc42d:MFC42D.DLL
 0001:00073f6a       ??0CTabCtrl@@QAE@XZ        00474f6a f   mfc42d:MFC42D.DLL
 0001:00073f70       ?DDX_Control@@YGXPAVCDataExchange@@HAAVCWnd@@@Z 00474f70 f   mfc42d:MFC42D.DLL
 0001:00073f76       ?GetItemRect@CTabCtrl@@QBEHHPAUtagRECT@@@Z 00474f76 f   mfc42d:MFC42D.DLL
 0001:00073f7c       ?GetClientRect@CWnd@@QBEXPAUtagRECT@@@Z 00474f7c f   mfc42d:MFC42D.DLL
 0001:00073f82       ?SendMessageA@CWnd@@QAEJIIJ@Z 00474f82 f   mfc42d:MFC42D.DLL
 0001:00073f88       ?Create@CFrameWnd@@QAEHPBD0KABUtagRECT@@PAVCWnd@@0KPAUCCreateContext@@@Z 00474f88 f   mfc42d:MFC42D.DLL
 0001:00073f8e       ?OnNcHitTest@CWnd@@IAEIVCPoint@@@Z 00474f8e f   mfc42d:MFC42D.DLL
 0001:00073f94       ??0CEdit@@QAE@XZ           00474f94 f   mfc42d:MFC42D.DLL
 0001:00073f9a       ??1CEdit@@UAE@XZ           00474f9a f   mfc42d:MFC42D.DLL
 0001:00073fa0       ?ExitHelpMode@CFrameWnd@@UAEXXZ 00474fa0 f   mfc42d:MFC42D.DLL
 0001:00073fa6       ?DelayUpdateFrameMenu@CFrameWnd@@UAEXPAUHMENU__@@@Z 00474fa6 f   mfc42d:MFC42D.DLL
 0001:00073fac       ?GetDefaultAccelerator@CFrameWnd@@UAEPAUHACCEL__@@XZ 00474fac f   mfc42d:MFC42D.DLL
 0001:00073fb2       ?OnUpdateFrameMenu@CFrameWnd@@UAEXPAUHMENU__@@@Z 00474fb2 f   mfc42d:MFC42D.DLL
 0001:00073fb8       ?OnUpdateFrameTitle@CFrameWnd@@UAEXH@Z 00474fb8 f   mfc42d:MFC42D.DLL
 0001:00073fbe       ?NegotiateBorderSpace@CFrameWnd@@UAEHIPAUtagRECT@@@Z 00474fbe f   mfc42d:MFC42D.DLL
 0001:00073fc4       ?GetMessageBar@CFrameWnd@@UAEPAVCWnd@@XZ 00474fc4 f   mfc42d:MFC42D.DLL
 0001:00073fca       ?OnSetPreviewMode@CFrameWnd@@UAEXHPAUCPrintPreviewState@@@Z 00474fca f   mfc42d:MFC42D.DLL
 0001:00073fd0       ?ActivateFrame@CFrameWnd@@UAEXH@Z 00474fd0 f   mfc42d:MFC42D.DLL
 0001:00073fd6       ?RecalcLayout@CFrameWnd@@UAEXH@Z 00474fd6 f   mfc42d:MFC42D.DLL
 0001:00073fdc       ?GetMessageString@CFrameWnd@@UBEXIAAVCString@@@Z 00474fdc f   mfc42d:MFC42D.DLL
 0001:00073fe2       ?GetActiveFrame@CFrameWnd@@UAEPAV1@XZ 00474fe2 f   mfc42d:MFC42D.DLL
 0001:00073fe8       ?GetActiveDocument@CFrameWnd@@UAEPAVCDocument@@XZ 00474fe8 f   mfc42d:MFC42D.DLL
 0001:00073fee       ?LoadFrame@CFrameWnd@@UAEHIKPAVCWnd@@PAUCCreateContext@@@Z 00474fee f   mfc42d:MFC42D.DLL
 0001:00073ff4       ?IsFrameWnd@CFrameWnd@@UBEHXZ 00474ff4 f   mfc42d:MFC42D.DLL
 0001:00073ffa       ?PostNcDestroy@CFrameWnd@@MAEXXZ 00474ffa f   mfc42d:MFC42D.DLL
 0001:00074000       ?PreTranslateMessage@CFrameWnd@@UAEHPAUtagMSG@@@Z 00475000 f   mfc42d:MFC42D.DLL
 0001:00074006       ?EndModalState@CFrameWnd@@UAEXXZ 00475006 f   mfc42d:MFC42D.DLL
 0001:0007400c       ?BeginModalState@CFrameWnd@@UAEXXZ 0047500c f   mfc42d:MFC42D.DLL
 0001:00074012       ?OnCommand@CFrameWnd@@MAEHIJ@Z 00475012 f   mfc42d:MFC42D.DLL
 0001:00074018       ?PreCreateWindow@CFrameWnd@@MAEHAAUtagCREATESTRUCTA@@@Z 00475018 f   mfc42d:MFC42D.DLL
 0001:0007401e       ?OnCmdMsg@CFrameWnd@@UAEHIHPAXPAUAFX_CMDHANDLERINFO@@@Z 0047501e f   mfc42d:MFC42D.DLL
 0001:00074024       ?Dump@CFrameWnd@@UBEXAAVCDumpContext@@@Z 00475024 f   mfc42d:MFC42D.DLL
 0001:0007402a       ?AssertValid@CFrameWnd@@UBEXXZ 0047502a f   mfc42d:MFC42D.DLL
 0001:00074030       ?GetRuntimeClass@CFrameWnd@@UBEPAUCRuntimeClass@@XZ 00475030 f   mfc42d:MFC42D.DLL
 0001:00074036       ??0CFrameWnd@@QAE@XZ       00475036 f   mfc42d:MFC42D.DLL
 0001:0007403c       ??1CFrameWnd@@UAE@XZ       0047503c f   mfc42d:MFC42D.DLL
 0001:00074042       ?OnCreateClient@CFrameWnd@@MAEHPAUtagCREATESTRUCTA@@PAUCCreateContext@@@Z 00475042 f   mfc42d:MFC42D.DLL
 0001:00074048       ?SetActiveView@CFrameWnd@@QAEXPAVCView@@H@Z 00475048 f   mfc42d:MFC42D.DLL
 0001:0007404e       ?OnEndPrintPreview@CView@@MAEXPAVCDC@@PAUCPrintInfo@@UtagPOINT@@PAVCPreviewView@@@Z 0047504e f   mfc42d:MFC42D.DLL
 0001:00074054       ?OnEndPrinting@CView@@MAEXPAVCDC@@PAUCPrintInfo@@@Z 00475054 f   mfc42d:MFC42D.DLL
 0001:0007405a       ?OnPrint@CView@@MAEXPAVCDC@@PAUCPrintInfo@@@Z 0047505a f   mfc42d:MFC42D.DLL
 0001:00074060       ?OnBeginPrinting@CView@@MAEXPAVCDC@@PAUCPrintInfo@@@Z 00475060 f   mfc42d:MFC42D.DLL
 0001:00074066       ?OnPreparePrinting@CView@@MAEHPAUCPrintInfo@@@Z 00475066 f   mfc42d:MFC42D.DLL
 0001:0007406c       ?OnUpdate@CView@@MAEXPAV1@JPAVCObject@@@Z 0047506c f   mfc42d:MFC42D.DLL
 0001:00074072       ?OnActivateFrame@CView@@MAEXIPAVCFrameWnd@@@Z 00475072 f   mfc42d:MFC42D.DLL
 0001:00074078       ?OnActivateView@CView@@MAEXHPAV1@0@Z 00475078 f   mfc42d:MFC42D.DLL
 0001:0007407e       ?OnPrepareDC@CScrollView@@UAEXPAVCDC@@PAUCPrintInfo@@@Z 0047507e f   mfc42d:MFC42D.DLL
 0001:00074084       ?OnDragScroll@CView@@UAEKKVCPoint@@@Z 00475084 f   mfc42d:MFC42D.DLL
 0001:0007408a       ?OnDropEx@CView@@UAEKPAVCOleDataObject@@KKVCPoint@@@Z 0047508a f   mfc42d:MFC42D.DLL
 0001:00074090       ?OnDrop@CView@@UAEHPAVCOleDataObject@@KVCPoint@@@Z 00475090 f   mfc42d:MFC42D.DLL
 0001:00074096       ?OnDragLeave@CView@@UAEXXZ 00475096 f   mfc42d:MFC42D.DLL
 0001:0007409c       ?OnDragOver@CView@@UAEKPAVCOleDataObject@@KVCPoint@@@Z 0047509c f   mfc42d:MFC42D.DLL
 0001:000740a2       ?OnDragEnter@CView@@UAEKPAVCOleDataObject@@KVCPoint@@@Z 004750a2 f   mfc42d:MFC42D.DLL
 0001:000740a8       ?OnScrollBy@CScrollView@@UAEHVCSize@@H@Z 004750a8 f   mfc42d:MFC42D.DLL
 0001:000740ae       ?OnScroll@CScrollView@@UAEHIIH@Z 004750ae f   mfc42d:MFC42D.DLL
 0001:000740b4       ?IsSelected@CView@@UBEHPBVCObject@@@Z 004750b4 f   mfc42d:MFC42D.DLL
 0001:000740ba       ?PostNcDestroy@CView@@MAEXXZ 004750ba f   mfc42d:MFC42D.DLL
 0001:000740c0       ?GetScrollBarCtrl@CView@@UBEPAVCScrollBar@@H@Z 004750c0 f   mfc42d:MFC42D.DLL
 0001:000740c6       ?CalcWindowRect@CScrollView@@UAEXPAUtagRECT@@I@Z 004750c6 f   mfc42d:MFC42D.DLL
 0001:000740cc       ?PreCreateWindow@CView@@MAEHAAUtagCREATESTRUCTA@@@Z 004750cc f   mfc42d:MFC42D.DLL
 0001:000740d2       ?OnCmdMsg@CView@@UAEHIHPAXPAUAFX_CMDHANDLERINFO@@@Z 004750d2 f   mfc42d:MFC42D.DLL
 0001:000740d8       ??1CScrollView@@UAE@XZ     004750d8 f   mfc42d:MFC42D.DLL
 0001:000740de       ??0CScrollView@@IAE@XZ     004750de f   mfc42d:MFC42D.DLL
 0001:000740e4       ?FromHandle@CFont@@SGPAV1@PAUHFONT__@@@Z 004750e4 f   mfc42d:MFC42D.DLL
 0001:000740ea       ??1CMenu@@UAE@XZ           004750ea f   mfc42d:MFC42D.DLL
 0001:000740f0       ?TrackPopupMenu@CMenu@@QAEHIHHPAVCWnd@@PBUtagRECT@@@Z 004750f0 f   mfc42d:MFC42D.DLL
 0001:000740f6       ?AppendMenuA@CMenu@@QAEHIIPBD@Z 004750f6 f   mfc42d:MFC42D.DLL
 0001:000740fc       ?CreatePopupMenu@CMenu@@QAEHXZ 004750fc f   mfc42d:MFC42D.DLL
 0001:00074102       ??0CMenu@@QAE@XZ           00475102 f   mfc42d:MFC42D.DLL
 0001:00074108       ?OpenClipboard@CWnd@@QAEHXZ 00475108 f   mfc42d:MFC42D.DLL
 0001:0007410e       ?AssertValid@CScrollView@@UBEXXZ 0047510e f   mfc42d:MFC42D.DLL
 0001:00074114       ?Dump@CScrollView@@UBEXAAVCDumpContext@@@Z 00475114 f   mfc42d:MFC42D.DLL
 0001:0007411a       ?SetScrollSizes@CScrollView@@QAEXHUtagSIZE@@ABU2@1@Z 0047511a f   mfc42d:MFC42D.DLL
 0001:00074120       ?OnInitialUpdate@CView@@UAEXXZ 00475120 f   mfc42d:MFC42D.DLL
 0001:00074126       ?OnSize@CScrollView@@QAEXIHH@Z 00475126 f   mfc42d:MFC42D.DLL
 0001:0007412c       ?ScrollToPosition@CScrollView@@QAEXUtagPOINT@@@Z 0047512c f   mfc42d:MFC42D.DLL
 0001:00074132       ?FillRect@CDC@@QAEXPBUtagRECT@@PAVCBrush@@@Z 00475132 f   mfc42d:MFC42D.DLL
 0001:00074138       ?CreateSysColorBrush@CBrush@@QAEHH@Z 00475138 f   mfc42d:MFC42D.DLL
 0001:0007413e       ?GetDlgCtrlID@CWnd@@QBEHXZ 0047513e f   mfc42d:MFC42D.DLL
 0001:00074144       ?OnLButtonUp@CWnd@@IAEXIVCPoint@@@Z 00475144 f   mfc42d:MFC42D.DLL
 0001:0007414a       ??3CException@@SGXPAXPBDH@Z 0047514a f   mfc42d:MFC42D.DLL
 0001:00074150       ??1CFileException@@UAE@XZ  00475150 f   mfc42d:MFC42D.DLL
 0001:00074156       ??0CFileException@@QAE@HJPBD@Z 00475156 f   mfc42d:MFC42D.DLL
 0001:0007415c       ?CreateFontA@CFont@@QAEHHHHHHEEEEEEEEPBD@Z 0047515c f   mfc42d:MFC42D.DLL
 0001:00074162       ?GetTextMetricsA@CDC@@QBEHPAUtagTEXTMETRICA@@@Z 00475162 f   mfc42d:MFC42D.DLL
 0001:00074168       ?DDV_MaxChars@@YGXPAVCDataExchange@@ABVCString@@H@Z 00475168 f   mfc42d:MFC42D.DLL
 0001:0007416e       ?DDX_Text@@YGXPAVCDataExchange@@HAAH@Z 0047516e f   mfc42d:MFC42D.DLL
 0001:00074174       ?UpdateData@CWnd@@QAEHH@Z  00475174 f   mfc42d:MFC42D.DLL
 0001:0007417a       ?SetActiveWindow@CWnd@@QAEPAV1@XZ 0047517a f   mfc42d:MFC42D.DLL
 0001:00074180       ?SetCapture@CWnd@@QAEPAV1@XZ 00475180 f   mfc42d:MFC42D.DLL
 0001:00074186       ?EnableModeless@CWinApp@@QAEXH@Z 00475186 f   mfc42d:MFC42D.DLL
 0001:0007418c       ?AfxGetApp@@YGPAVCWinApp@@XZ 0047518c f   mfc42d:MFC42D.DLL
 0001:00074192       ?GetSafeOwner@CWnd@@SGPAV1@PAV1@PAPAUHWND__@@@Z 00475192 f   mfc42d:MFC42D.DLL
 0001:00074198       ?AfxMessageBox@@YGHIII@Z   00475198 f   mfc42d:MFC42D.DLL
 0001:0007419e       ?OnKillFocus@CWnd@@IAEXPAV1@@Z 0047519e f   mfc42d:MFC42D.DLL
 0001:000741a4       ??1CSplitterWnd@@UAE@XZ    004751a4 f   mfc42d:MFC42D.DLL
 0001:000741aa       ??0CStatusBar@@QAE@XZ      004751aa f   mfc42d:MFC42D.DLL
 0001:000741b0       ??0CSplitterWnd@@QAE@XZ    004751b0 f   mfc42d:MFC42D.DLL
 0001:000741b6       ??1CStatusBar@@UAE@XZ      004751b6 f   mfc42d:MFC42D.DLL
 0001:000741bc       ?ModifyStyleEx@CWnd@@QAEHKKI@Z 004751bc f   mfc42d:MFC42D.DLL
 0001:000741c2       ?SetPaneInfo@CStatusBar@@QAEXHIIH@Z 004751c2 f   mfc42d:MFC42D.DLL
 0001:000741c8       ?SetPaneText@CStatusBar@@QAEHHPBDH@Z 004751c8 f   mfc42d:MFC42D.DLL
 0001:000741ce       ?SetIndicators@CStatusBar@@QAEHPBIH@Z 004751ce f   mfc42d:MFC42D.DLL
 0001:000741d4       ?Create@CStatusBar@@QAEHPAVCWnd@@KI@Z 004751d4 f   mfc42d:MFC42D.DLL
 0001:000741da       ?OnCreate@CFrameWnd@@IAEHPAUtagCREATESTRUCTA@@@Z 004751da f   mfc42d:MFC42D.DLL
 0001:000741e0       ?OnSize@CFrameWnd@@IAEXIHH@Z 004751e0 f   mfc42d:MFC42D.DLL
 0001:000741e6       ?OnClose@CFrameWnd@@IAEXXZ 004751e6 f   mfc42d:MFC42D.DLL
 0001:000741ec       ?SetMenu@CWnd@@QAEHPAVCMenu@@@Z 004751ec f   mfc42d:MFC42D.DLL
 0001:000741f2       ?GetMenu@CWnd@@QBEPAVCMenu@@XZ 004751f2 f   mfc42d:MFC42D.DLL
 0001:000741f8       ?IsIconic@CWnd@@QBEHXZ     004751f8 f   mfc42d:MFC42D.DLL
 0001:000741fe       ?SetWindowPos@CWnd@@QAEHPBV1@HHHHI@Z 004751fe f   mfc42d:MFC42D.DLL
 0001:00074204       ?MoveWindow@CWnd@@QAEXHHHHH@Z 00475204 f   mfc42d:MFC42D.DLL
 0001:0007420a       ?IsRectEmpty@CRect@@QBEHXZ 0047520a f   mfc42d:MFC42D.DLL
 0001:00074210       ?OnGetMinMaxInfo@CWnd@@IAEXPAUtagMINMAXINFO@@@Z 00475210 f   mfc42d:MFC42D.DLL
 0001:00074216       ?GetControlBar@CFrameWnd@@QAEPAVCControlBar@@I@Z 00475216 f   mfc42d:MFC42D.DLL
 0001:0007421c       ?ClientToScreen@CWnd@@QBEXPAUtagRECT@@@Z 0047521c f   mfc42d:MFC42D.DLL
 0001:00074222       ?OnMove@CWnd@@IAEXHH@Z     00475222 f   mfc42d:MFC42D.DLL
 0001:00074228       ?KillTimer@CWnd@@QAEHH@Z   00475228 f   mfc42d:MFC42D.DLL
 0001:0007422e       ?OnTimer@CWnd@@IAEXI@Z     0047522e f   mfc42d:MFC42D.DLL
 0001:00074234       ?IsWindowVisible@CWnd@@QBEHXZ 00475234 f   mfc42d:MFC42D.DLL
 0001:0007423a       ?Dump@CMenu@@UBEXAAVCDumpContext@@@Z 0047523a f   mfc42d:MFC42D.DLL
 0001:00074240       ?AssertValid@CMenu@@UBEXXZ 00475240 f   mfc42d:MFC42D.DLL
 0001:00074246       ?GetRuntimeClass@CMenu@@UBEPAUCRuntimeClass@@XZ 00475246 f   mfc42d:MFC42D.DLL
 0001:0007424c       ?GetRuntimeClass@CWnd@@UBEPAUCRuntimeClass@@XZ 0047524c f   mfc42d:MFC42D.DLL
 0001:00074252       ??0CWnd@@QAE@XZ            00475252 f   mfc42d:MFC42D.DLL
 0001:00074258       ??1CWnd@@UAE@XZ            00475258 f   mfc42d:MFC42D.DLL
 0001:0007425e       ?CreateEx@CWnd@@QAEHKPBD0KHHHHPAUHWND__@@PAUHMENU__@@PAX@Z 0047525e f   mfc42d:MFC42D.DLL
 0001:00074264       ?AfxRegisterWndClass@@YGPBDIPAUHICON__@@PAUHBRUSH__@@0@Z 00475264 f   mfc42d:MFC42D.DLL
 0001:0007426a       ?LoadStandardCursor@CWinApp@@QBEPAUHICON__@@PBD@Z 0047526a f   mfc42d:MFC42D.DLL
 0001:00074270       ?OnCreate@CWnd@@IAEHPAUtagCREATESTRUCTA@@@Z 00475270 f   mfc42d:MFC42D.DLL
 0001:00074276       ??BCDC@@QBEPAUHDC__@@XZ    00475276 f   mfc42d:MFC42D.DLL
 0001:0007427c       ?OnPrepareDC@CView@@UAEXPAVCDC@@PAUCPrintInfo@@@Z 0047527c f   mfc42d:MFC42D.DLL
 0001:00074282       ?OnScrollBy@CView@@UAEHVCSize@@H@Z 00475282 f   mfc42d:MFC42D.DLL
 0001:00074288       ?OnScroll@CView@@UAEHIIH@Z 00475288 f   mfc42d:MFC42D.DLL
 0001:0007428e       ?CalcWindowRect@CView@@UAEXPAUtagRECT@@I@Z 0047528e f   mfc42d:MFC42D.DLL
 0001:00074294       ??1CToolTipCtrl@@UAE@XZ    00475294 f   mfc42d:MFC42D.DLL
 0001:0007429a       ??1CView@@UAE@XZ           0047529a f   mfc42d:MFC42D.DLL
 0001:000742a0       ??0CToolTipCtrl@@QAE@XZ    004752a0 f   mfc42d:MFC42D.DLL
 0001:000742a6       ??0CView@@IAE@XZ           004752a6 f   mfc42d:MFC42D.DLL
 0001:000742ac       ?AssertValid@CView@@UBEXXZ 004752ac f   mfc42d:MFC42D.DLL
 0001:000742b2       ?Dump@CView@@UBEXAAVCDumpContext@@@Z 004752b2 f   mfc42d:MFC42D.DLL
 0001:000742b8       ?CreateBitmap@CBitmap@@QAEHHHIIPBX@Z 004752b8 f   mfc42d:MFC42D.DLL
 0001:000742be       ?ModifyMenuA@CMenu@@QAEHIIIPBD@Z 004752be f   mfc42d:MFC42D.DLL
 0001:000742c4       ?LoadMenuA@CMenu@@QAEHI@Z  004752c4 f   mfc42d:MFC42D.DLL
 0001:000742ca       ?AddTool@CToolTipCtrl@@QAEHPAVCWnd@@PBDPBUtagRECT@@I@Z 004752ca f   mfc42d:MFC42D.DLL
 0001:000742d0       ?Create@CToolTipCtrl@@QAEHPAVCWnd@@K@Z 004752d0 f   mfc42d:MFC42D.DLL
 0001:000742d6       ?ScreenToClient@CWnd@@QBEXPAUtagPOINT@@@Z 004752d6 f   mfc42d:MFC42D.DLL
 0001:000742dc       ?OnKeyDown@CWnd@@IAEXIII@Z 004752dc f   mfc42d:MFC42D.DLL
 0001:000742e2       ?IntersectRect@CRect@@QAEHPBUtagRECT@@0@Z 004752e2 f   mfc42d:MFC42D.DLL
 0001:000742e8       ?SetRectEmpty@CRect@@QAEXXZ 004752e8 f   mfc42d:MFC42D.DLL
 0001:000742ee       ?GetParentFrame@CWnd@@QBEPAVCFrameWnd@@XZ 004752ee f   mfc42d:MFC42D.DLL
 0001:000742f4       ?GetPathName@CFileDialog@@QBE?AVCString@@XZ 004752f4 f   mfc42d:MFC42D.DLL
 0001:000742fa       ?DoModal@CFileDialog@@UAEHXZ 004752fa f   mfc42d:MFC42D.DLL
 0001:00074300       ??0CFileDialog@@QAE@HPBD0K0PAVCWnd@@@Z 00475300 f   mfc42d:MFC42D.DLL
 0001:00074306       ?SetFont@CWnd@@QAEXPAVCFont@@H@Z 00475306 f   mfc42d:MFC42D.DLL
 0001:0007430c       ?RelayEvent@CToolTipCtrl@@QAEXPAUtagMSG@@@Z 0047530c f   mfc42d:MFC42D.DLL
 0001:00074312       ?OnMouseMove@CWnd@@IAEXIVCPoint@@@Z 00475312 f   mfc42d:MFC42D.DLL
 0001:00074318       ?Activate@CToolTipCtrl@@QAEXH@Z 00475318 f   mfc42d:MFC42D.DLL
 0001:0007431e       ?ClientToScreen@CWnd@@QBEXPAUtagPOINT@@@Z 0047531e f   mfc42d:MFC42D.DLL
 0001:00074324       ?GetSubMenu@CMenu@@QBEPAV1@H@Z 00475324 f   mfc42d:MFC42D.DLL
 0001:0007432a       ?OnHelp@CWinApp@@IAEXXZ    0047532a f   mfc42d:MFC42D.DLL
 0001:00074330       ?FromHandle@CWnd@@SGPAV1@PAUHWND__@@@Z 00475330 f   mfc42d:MFC42D.DLL
 0001:00074336       ??1CWinApp@@UAE@XZ         00475336 f   mfc42d:MFC42D.DLL
 0001:0007433c       ?SeekToBegin@CFile@@QAEXXZ 0047533c f   mfc42d:MFC42D.DLL
 0001:00074342       ?GetPosition@CFile@@UBEKXZ 00475342 f   mfc42d:MFC42D.DLL
 0001:00074348       ?SeekToEnd@CFile@@QAEKXZ   00475348 f   mfc42d:MFC42D.DLL
 0001:0007434e       ?WinHelpA@CWinApp@@UAEXKI@Z 0047534e f   mfc42d:MFC42D.DLL
 0001:00074354       ?OnDDECommand@CWinApp@@UAEHPAD@Z 00475354 f   mfc42d:MFC42D.DLL
 0001:0007435a       ?DoWaitCursor@CWinApp@@UAEXH@Z 0047535a f   mfc42d:MFC42D.DLL
 0001:00074360       ?DoMessageBox@CWinApp@@UAEHPBDII@Z 00475360 f   mfc42d:MFC42D.DLL
 0001:00074366       ?SaveAllModified@CWinApp@@UAEHXZ 00475366 f   mfc42d:MFC42D.DLL
 0001:0007436c       ?InitApplication@CWinApp@@UAEHXZ 0047536c f   mfc42d:MFC42D.DLL
 0001:00074372       ?AddToRecentFileList@CWinApp@@UAEXPBD@Z 00475372 f   mfc42d:MFC42D.DLL
 0001:00074378       ?OpenDocumentFile@CWinApp@@UAEPAVCDocument@@PBD@Z 00475378 f   mfc42d:MFC42D.DLL
 0001:0007437e       ?Delete@CWinThread@@UAEXXZ 0047537e f   mfc42d:MFC42D.DLL
 0001:00074384       ?GetMainWnd@CWinThread@@UAEPAVCWnd@@XZ 00475384 f   mfc42d:MFC42D.DLL
 0001:0007438a       ?ProcessMessageFilter@CWinThread@@UAEHHPAUtagMSG@@@Z 0047538a f   mfc42d:MFC42D.DLL
 0001:00074390       ?ProcessWndProcException@CWinApp@@UAEJPAVCException@@PBUtagMSG@@@Z 00475390 f   mfc42d:MFC42D.DLL
 0001:00074396       ?IsIdleMessage@CWinThread@@UAEHPAUtagMSG@@@Z 00475396 f   mfc42d:MFC42D.DLL
 0001:0007439c       ?PumpMessage@CWinThread@@UAEHXZ 0047539c f   mfc42d:MFC42D.DLL
 0001:000743a2       ?OnFinalRelease@CCmdTarget@@UAEXXZ 004753a2 f   mfc42d:MFC42D.DLL
 0001:000743a8       ?Dump@CWinApp@@UBEXAAVCDumpContext@@@Z 004753a8 f   mfc42d:MFC42D.DLL
 0001:000743ae       ?AssertValid@CWinApp@@UBEXXZ 004753ae f   mfc42d:MFC42D.DLL
 0001:000743b4       ?GetRuntimeClass@CWinApp@@UBEPAUCRuntimeClass@@XZ 004753b4 f   mfc42d:MFC42D.DLL
 0001:000743ba       ??0CWinApp@@QAE@PBD@Z      004753ba f   mfc42d:MFC42D.DLL
 0001:000743c0       ?OnIdle@CWinApp@@UAEHJ@Z   004753c0 f   mfc42d:MFC42D.DLL
 0001:000743c6       ?Run@CWinApp@@UAEHXZ       004753c6 f   mfc42d:MFC42D.DLL
 0001:000743cc       ?ExitInstance@CWinApp@@UAEHXZ 004753cc f   mfc42d:MFC42D.DLL
 0001:000743d2       ?PreTranslateMessage@CWinThread@@UAEHPAUtagMSG@@@Z 004753d2 f   mfc42d:MFC42D.DLL
 0001:000743d8       __chkesp                   004753d8 f   msvcrtd:MSVCRTD.dll
 0001:000743de       ___CxxFrameHandler         004753de f   msvcrtd:MSVCRTD.dll
 0001:000743f0       __ftol                     004753f0 f   msvcrtd:MSVCRTD.dll
 0001:000743f6       _memcpy                    004753f6 f   msvcrtd:MSVCRTD.dll
 0001:00074400       __onexit                   00475400 f   msvcrtd:atonexit.obj
 0001:00074440       _atexit                    00475440 f   msvcrtd:atonexit.obj
 0001:00074458       _fclose                    00475458 f   msvcrtd:MSVCRTD.dll
 0001:0007445e       _fprintf                   0047545e f   msvcrtd:MSVCRTD.dll
 0001:00074464       _asctime                   00475464 f   msvcrtd:MSVCRTD.dll
 0001:0007446a       _gmtime                    0047546a f   msvcrtd:MSVCRTD.dll
 0001:00074470       _time                      00475470 f   msvcrtd:MSVCRTD.dll
 0001:00074476       _fopen                     00475476 f   msvcrtd:MSVCRTD.dll
 0001:0007447c       __assert                   0047547c f   msvcrtd:MSVCRTD.dll
 0001:00074482       _strncpy                   00475482 f   msvcrtd:MSVCRTD.dll
 0001:00074488       _memset                    00475488 f   msvcrtd:MSVCRTD.dll
 0001:0007448e       _sprintf                   0047548e f   msvcrtd:MSVCRTD.dll
 0001:00074494       __strnicmp                 00475494 f   msvcrtd:MSVCRTD.dll
 0001:0007449a       _strlen                    0047549a f   msvcrtd:MSVCRTD.dll
 0001:000744a0       ??0type_info@@AAE@ABV0@@Z  004754a0 f   msvcrtd:ti_inst.obj
 0001:000744c0       ??_Etype_info@@UAEPAXI@Z   004754c0 f i msvcrtd:ti_inst.obj
 0001:000744c0       ??_Gtype_info@@UAEPAXI@Z   004754c0 f i msvcrtd:ti_inst.obj
 0001:000744f0       ??4type_info@@AAEAAV0@ABV0@@Z 004754f0 f   msvcrtd:ti_inst.obj
 0001:00074500       _rand                      00475500 f   msvcrtd:MSVCRTD.dll
 0001:00074506       __purecall                 00475506 f   msvcrtd:MSVCRTD.dll
 0001:0007450c       _tolower                   0047550c f   msvcrtd:MSVCRTD.dll
 0001:00074512       _atoi                      00475512 f   msvcrtd:MSVCRTD.dll
 0001:00074520       ??_M@YGXPAXIHP6EX0@Z@Z     00475520 f   msvcrtd:ehvecdtr.obj
 0001:000745d0       ?__ArrayUnwind@@YGXPAXIHP6EX0@Z@Z 004755d0 f   msvcrtd:ehvecdtr.obj
 0001:0007467c       _fread                     0047567c f   msvcrtd:MSVCRTD.dll
 0001:00074690       __alloca_probe             00475690 f   msvcrtd:chkstk.obj
 0001:00074690       __chkstk                   00475690 f   msvcrtd:chkstk.obj
 0001:000746c0       __beginthread              004756c0 f   msvcrtd:MSVCRTD.dll
 0001:000746c6       __endthread                004756c6 f   msvcrtd:MSVCRTD.dll
 0001:000746cc       _abs                       004756cc f   msvcrtd:MSVCRTD.dll
 0001:000746e0       ??_L@YGXPAXIHP6EX0@Z1@Z    004756e0 f   msvcrtd:ehvecctr.obj
 0001:00074780       __CxxThrowException@8      00475780 f   msvcrtd:MSVCRTD.dll
 0001:00074786       _srand                     00475786 f   msvcrtd:MSVCRTD.dll
 0001:0007478c       _modf                      0047578c f   msvcrtd:MSVCRTD.dll
 0001:00074792       _pow                       00475792 f   msvcrtd:MSVCRTD.dll
 0001:00074798       _atof                      00475798 f   msvcrtd:MSVCRTD.dll
 0001:0007479e       _strtok                    0047579e f   msvcrtd:MSVCRTD.dll
 0001:000747a4       _strcpy                    004757a4 f   msvcrtd:MSVCRTD.dll
 0001:000747b0       _WinMainCRTStartup         004757b0 f   msvcrtd:crtexew.obj
 0001:000749aa       ___dllonexit               004759aa f   msvcrtd:MSVCRTD.dll
 0001:000749b0       ??1type_info@@UAE@XZ       004759b0 f   msvcrtd:MSVCRTD.dll
 0001:000749b6       __except_handler3          004759b6 f   msvcrtd:MSVCRTD.dll
 0001:000749bc       ?terminate@@YAXXZ          004759bc f   msvcrtd:MSVCRTD.dll
 0001:000749c2       __exit                     004759c2 f   msvcrtd:MSVCRTD.dll
 0001:000749c8       __XcptFilter               004759c8 f   msvcrtd:MSVCRTD.dll
 0001:000749ce       _exit                      004759ce f   msvcrtd:MSVCRTD.dll
 0001:000749d4       ___getmainargs             004759d4 f   msvcrtd:MSVCRTD.dll
 0001:000749da       __initterm                 004759da f   msvcrtd:MSVCRTD.dll
 0001:000749e0       __setdefaultprecision      004759e0 f   msvcrtd:fp8.obj
 0001:000749f8       ___setusermatherr          004759f8 f   msvcrtd:MSVCRTD.dll
 0001:00074a00       __matherr                  00475a00 f   msvcrtd:merr.obj
 0001:00074a10       __setargv                  00475a10 f   msvcrtd:dllargv.obj
 0001:00074a16       ___p__commode              00475a16 f   msvcrtd:MSVCRTD.dll
 0001:00074a1c       ___p__fmode                00475a1c f   msvcrtd:MSVCRTD.dll
 0001:00074a22       ___set_app_type            00475a22 f   msvcrtd:MSVCRTD.dll
 0001:00074a28       __controlfp                00475a28 f   msvcrtd:MSVCRTD.dll
 0001:00074a2e       _OutputDebugStringA@4      00475a2e f   kernel32:KERNEL32.dll
 0001:00074a34       _lstrlenA@4                00475a34 f   kernel32:KERNEL32.dll
 0001:00074a3a       _GetTempFileNameA@16       00475a3a f   kernel32:KERNEL32.dll
 0001:00074a40       _Sleep@4                   00475a40 f   kernel32:KERNEL32.dll
 0001:00074a46       _LocalFree@4               00475a46 f   kernel32:KERNEL32.dll
 0001:00074a4c       _FormatMessageA@28         00475a4c f   kernel32:KERNEL32.dll
 0001:00074a52       _GetLastError@0            00475a52 f   kernel32:KERNEL32.dll
 0001:00074a58       _CreateEventA@16           00475a58 f   kernel32:KERNEL32.dll
 0001:00074a5e       _SetEvent@4                00475a5e f   kernel32:KERNEL32.dll
 0001:00074a64       _PulseEvent@4              00475a64 f   kernel32:KERNEL32.dll
 0001:00074a6a       _ResetEvent@4              00475a6a f   kernel32:KERNEL32.dll
 0001:00074a70       _CloseHandle@4             00475a70 f   kernel32:KERNEL32.dll
 0001:00074a76       _CreateMutexA@12           00475a76 f   kernel32:KERNEL32.dll
 0001:00074a7c       _WaitForSingleObject@8     00475a7c f   kernel32:KERNEL32.dll
 0001:00074a82       _ReleaseMutex@4            00475a82 f   kernel32:KERNEL32.dll
 0001:00074a88       _GlobalUnlock@4            00475a88 f   kernel32:KERNEL32.dll
 0001:00074a8e       _GlobalLock@4              00475a8e f   kernel32:KERNEL32.dll
 0001:00074a94       _GlobalAlloc@8             00475a94 f   kernel32:KERNEL32.dll
 0001:00074a9a       _FreeLibrary@4             00475a9a f   kernel32:KERNEL32.dll
 0001:00074aa0       _SearchPathA@24            00475aa0 f   kernel32:KERNEL32.dll
 0001:00074aa6       _GetProfileIntA@12         00475aa6 f   kernel32:KERNEL32.dll
 0001:00074aac       _GetProcAddress@8          00475aac f   kernel32:KERNEL32.dll
 0001:00074ab2       _LoadLibraryA@4            00475ab2 f   kernel32:KERNEL32.dll
 0001:00074ab8       _GlobalDeleteAtom@4        00475ab8 f   kernel32:KERNEL32.dll
 0001:00074abe       _GlobalGetAtomNameA@12     00475abe f   kernel32:KERNEL32.dll
 0001:00074ac4       _GetModuleHandleA@4        00475ac4 f   kernel32:KERNEL32.dll
 0001:00074aca       _GetStartupInfoA@4         00475aca f   kernel32:KERNEL32.dll
 0001:00074ad0       _CopyImage@20              00475ad0 f   user32:USER32.dll
 0001:00074ad6       _LoadImageA@24             00475ad6 f   user32:USER32.dll
 0001:00074adc       _IsWindow@4                00475adc f   user32:USER32.dll
 0001:00074ae2       _KillTimer@8               00475ae2 f   user32:USER32.dll
 0001:00074ae8       _SetTimer@16               00475ae8 f   user32:USER32.dll
 0001:00074aee       _PostMessageA@16           00475aee f   user32:USER32.dll
 0001:00074af4       _UnionRect@12              00475af4 f   user32:USER32.dll
 0001:00074afa       _GetDlgCtrlID@4            00475afa f   user32:USER32.dll
 0001:00074b00       _GetSystemMetrics@4        00475b00 f   user32:USER32.dll
 0001:00074b06       _GetSysColor@4             00475b06 f   user32:USER32.dll
 0001:00074b0c       _MessageBeep@4             00475b0c f   user32:USER32.dll
 0001:00074b12       _CloseClipboard@0          00475b12 f   user32:USER32.dll
 0001:00074b18       _SetClipboardData@8        00475b18 f   user32:USER32.dll
 0001:00074b1e       _EmptyClipboard@0          00475b1e f   user32:USER32.dll
 0001:00074b24       _EnableWindow@8            00475b24 f   user32:USER32.dll
 0001:00074b2a       _SetActiveWindow@4         00475b2a f   user32:USER32.dll
 0001:00074b30       _ReleaseCapture@0          00475b30 f   user32:USER32.dll
 0001:00074b36       _SetFocus@4                00475b36 f   user32:USER32.dll
 0001:00074b3c       _GetCursorPos@4            00475b3c f   user32:USER32.dll
 0001:00074b42       _EnumWindows@8             00475b42 f   user32:USER32.dll
 0001:00074b48       _DeleteObject@4            00475b48 f   gdi32:GDI32.dll
 0001:00074b4e       _DeleteDC@4                00475b4e f   gdi32:GDI32.dll
 0001:00074b54       _BitBlt@36                 00475b54 f   gdi32:GDI32.dll
 0001:00074b5a       _SelectObject@8            00475b5a f   gdi32:GDI32.dll
 0001:00074b60       _CreateCompatibleDC@4      00475b60 f   gdi32:GDI32.dll
 0001:00074b66       _CreateCompatibleBitmap@12 00475b66 f   gdi32:GDI32.dll
 0001:00074b6c       _SetDIBitsToDevice@48      00475b6c f   gdi32:GDI32.dll
 0001:00074b72       _GetDeviceCaps@8           00475b72 f   gdi32:GDI32.dll
 0001:00074b78       _CreateDIBSection@24       00475b78 f   gdi32:GDI32.dll
 0001:00074b7e       _SetDIBits@28              00475b7e f   gdi32:GDI32.dll
 0001:00074b84       _GetDIBits@28              00475b84 f   gdi32:GDI32.dll
 0001:00074b8a       _GetStockObject@4          00475b8a f   gdi32:GDI32.dll
 0001:00074b90       _RegCloseKey@4             00475b90 f   advapi32:ADVAPI32.dll
 0001:00074b96       _RegQueryValueExA@24       00475b96 f   advapi32:ADVAPI32.dll
 0001:00074b9c       _RegOpenKeyExA@20          00475b9c f   advapi32:ADVAPI32.dll
 0001:00074ba2       _RegSetValueExA@24         00475ba2 f   advapi32:ADVAPI32.dll
 0001:00074ba8       _RegCreateKeyA@12          00475ba8 f   advapi32:ADVAPI32.dll
 0001:00074bae       _RegEnumKeyExA@32          00475bae f   advapi32:ADVAPI32.dll
 0001:00074bb4       _ShellExecuteExA@4         00475bb4 f   shell32:SHELL32.dll
 0001:00074bba       ?c_str@?$basic_string@DU?$char_traits@D@std@@V?$allocator@D@2@@std@@QBEPBDXZ 00475bba f   msvcprtd:MSVCP60D.dll
 0001:00074bc0       ??1?$basic_string@DU?$char_traits@D@std@@V?$allocator@D@2@@std@@QAE@XZ 00475bc0 f   msvcprtd:MSVCP60D.dll
 0001:00074bc6       ??4?$basic_string@DU?$char_traits@D@std@@V?$allocator@D@2@@std@@QAEAAV01@ABV01@@Z 00475bc6 f   msvcprtd:MSVCP60D.dll
 0001:00074bcc       ??Hstd@@YA?AV?$basic_string@DU?$char_traits@D@std@@V?$allocator@D@2@@0@ABV10@0@Z 00475bcc f   msvcprtd:MSVCP60D.dll
 0001:00074bd2       ??0?$basic_string@DU?$char_traits@D@std@@V?$allocator@D@2@@std@@QAE@PBDABV?$allocator@D@1@@Z 00475bd2 f   msvcprtd:MSVCP60D.dll
 0001:00074bd8       ??0?$basic_string@DU?$char_traits@D@std@@V?$allocator@D@2@@std@@QAE@ABV?$allocator@D@1@@Z 00475bd8 f   msvcprtd:MSVCP60D.dll
 0001:00074bde       ??0?$basic_string@DU?$char_traits@D@std@@V?$allocator@D@2@@std@@QAE@ABV01@@Z 00475bde f   msvcprtd:MSVCP60D.dll
 0001:00074be4       ??4?$basic_string@DU?$char_traits@D@std@@V?$allocator@D@2@@std@@QAEAAV01@PBD@Z 00475be4 f   msvcprtd:MSVCP60D.dll
 0001:00074bea       ??Hstd@@YA?AV?$basic_string@DU?$char_traits@D@std@@V?$allocator@D@2@@0@ABV10@PBD@Z 00475bea f   msvcprtd:MSVCP60D.dll
 0001:00074bf0       ??0Init@ios_base@std@@QAE@XZ 00475bf0 f   msvcprtd:MSVCP60D.dll
 0001:00074bf6       ??1Init@ios_base@std@@QAE@XZ 00475bf6 f   msvcprtd:MSVCP60D.dll
 0001:00074bfc       ??0_Winit@std@@QAE@XZ      00475bfc f   msvcprtd:MSVCP60D.dll
 0001:00074c02       ??1_Winit@std@@QAE@XZ      00475c02 f   msvcprtd:MSVCP60D.dll
 0001:00074c08       ??A?$basic_string@DU?$char_traits@D@std@@V?$allocator@D@2@@std@@QAEAADI@Z 00475c08 f   msvcprtd:MSVCP60D.dll
 0001:00074c0e       ?size@?$basic_string@DU?$char_traits@D@std@@V?$allocator@D@2@@std@@QBEIXZ 00475c0e f   msvcprtd:MSVCP60D.dll
 0001:00074c14       ??A?$basic_string@DU?$char_traits@D@std@@V?$allocator@D@2@@std@@QBEABDI@Z 00475c14 f   msvcprtd:MSVCP60D.dll
 0001:00074c1a       ?find_first_of@?$basic_string@DU?$char_traits@D@std@@V?$allocator@D@2@@std@@QBEIDI@Z 00475c1a f   msvcprtd:MSVCP60D.dll
 0001:00074c20       ??Y?$basic_string@DU?$char_traits@D@std@@V?$allocator@D@2@@std@@QAEAAV01@ABV01@@Z 00475c20 f   msvcprtd:MSVCP60D.dll
 0001:00074c26       ??8std@@YA_NABV?$basic_string@DU?$char_traits@D@std@@V?$allocator@D@2@@0@PBD@Z 00475c26 f   msvcprtd:MSVCP60D.dll
 0001:00074c2c       ??8std@@YA_NABV?$basic_string@DU?$char_traits@D@std@@V?$allocator@D@2@@0@0@Z 00475c2c f   msvcprtd:MSVCP60D.dll
 0001:00074c32       ??_D?$basic_ifstream@DU?$char_traits@D@std@@@std@@QAEXXZ 00475c32 f   msvcprtd:MSVCP60D.dll
 0001:00074c38       ?open@?$basic_ifstream@DU?$char_traits@D@std@@@std@@QAEXPBDH@Z 00475c38 f   msvcprtd:MSVCP60D.dll
 0001:00074c3e       ?is_open@?$basic_ifstream@DU?$char_traits@D@std@@@std@@QBE_NXZ 00475c3e f   msvcprtd:MSVCP60D.dll
 0001:00074c44       ??0?$basic_ifstream@DU?$char_traits@D@std@@@std@@QAE@PBDH@Z 00475c44 f   msvcprtd:MSVCP60D.dll
 0001:00074c4a       ??7ios_base@std@@QBE_NXZ   00475c4a f   msvcprtd:MSVCP60D.dll
 0001:00074c50       ??5std@@YAAAV?$basic_istream@DU?$char_traits@D@std@@@0@AAV10@AAV?$basic_string@DU?$char_traits@D@std@@V?$allocator@D@2@@0@@Z 00475c50 f   msvcprtd:MSVCP60D.dll
 0001:00074c56       ??6ostream@@QAEAAV0@PBD@Z  00475c56 f   msvcirtd:MSVCIRTD.dll
 0001:00074c5c       ??6ostream@@QAEAAV0@D@Z    00475c5c f   msvcirtd:MSVCIRTD.dll
 0001:00074c62       ??6ostream@@QAEAAV0@K@Z    00475c62 f   msvcirtd:MSVCIRTD.dll
 0001:00074c68       ?str@strstreambuf@@QAEPADXZ 00475c68 f   msvcirtd:MSVCIRTD.dll
 0001:00074c6e       ?rdbuf@ostrstream@@QBEPAVstrstreambuf@@XZ 00475c6e f   msvcirtd:MSVCIRTD.dll
 0001:00074c74       ??6ostream@@QAEAAV0@H@Z    00475c74 f   msvcirtd:MSVCIRTD.dll
 0001:00074c7a       ?seekp@ostream@@QAEAAV1@J@Z 00475c7a f   msvcirtd:MSVCIRTD.dll
 0001:00074c80       ?freeze@strstreambuf@@QAEXH@Z 00475c80 f   msvcirtd:MSVCIRTD.dll
 0001:00074c86       ??6ostream@@QAEAAV0@N@Z    00475c86 f   msvcirtd:MSVCIRTD.dll
 0001:00074c8c       ??_Dostrstream@@QAEXXZ     00475c8c f   msvcirtd:MSVCIRTD.dll
 0001:00074c92       ?precision@ios@@QAEHH@Z    00475c92 f   msvcirtd:MSVCIRTD.dll
 0001:00074c98       ??0ostrstream@@QAE@XZ      00475c98 f   msvcirtd:MSVCIRTD.dll
 0001:00074ca0       _SSL_CTX_new               00475ca0 f   ssleay32:SSLEAY32.dll
 0001:00074ca6       _SSL_load_error_strings    00475ca6 f   ssleay32:SSLEAY32.dll
 0001:00074cac       _SSLv2_client_method       00475cac f   ssleay32:SSLEAY32.dll
 0001:00074cb2       _SSL_library_init          00475cb2 f   ssleay32:SSLEAY32.dll
 0001:00074cb8       _SSL_get_error             00475cb8 f   ssleay32:SSLEAY32.dll
 0001:00074cbe       _SSL_connect               00475cbe f   ssleay32:SSLEAY32.dll
 0001:00074cc4       _SSL_set_fd                00475cc4 f   ssleay32:SSLEAY32.dll
 0001:00074cca       _SSL_new                   00475cca f   ssleay32:SSLEAY32.dll
 0001:00074cd0       _SSL_read                  00475cd0 f   ssleay32:SSLEAY32.dll
 0001:00074cd6       _SSL_write                 00475cd6 f   ssleay32:SSLEAY32.dll
 0001:00074cdc       _SSL_free                  00475cdc f   ssleay32:SSLEAY32.dll
 0001:00074ce2       _SSL_shutdown              00475ce2 f   ssleay32:SSLEAY32.dll
 0001:00074ce8       _SSL_CTX_free              00475ce8 f   ssleay32:SSLEAY32.dll
 0001:00074cee       _ERR_error_string          00475cee f   libeay32:LIBEAY32.dll
 0001:00074cf4       ??0BitmapImage@Colosseum@@QAE@XZ 00475cf4 f   jpglib:jpglib.dll
 0001:00074cfa       ??1BitmapImage@Colosseum@@UAE@XZ 00475cfa f   jpglib:jpglib.dll
 0001:00074d00       ?ReadImage@Colosseum@@YA?AW4ImageType@1@ABV?$basic_string@DU?$char_traits@D@std@@V?$allocator@D@2@@std@@AAVBitmapImage@1@P6AXAAVBitmapImageCoder@1@PAXIIIAA_N@Z3@Z 00475d00 f   jpglib:jpglib.dll
 0001:00074d06       ?getWidth@BitmapImage@Colosseum@@QBEIXZ 00475d06 f   jpglib:jpglib.dll
 0001:00074d0c       ?getHeight@BitmapImage@Colosseum@@QBEIXZ 00475d0c f   jpglib:jpglib.dll
 0001:00074d12       ??ABitmapImage@Colosseum@@QAEAAUPixel@01@I@Z 00475d12 f   jpglib:jpglib.dll
 0001:00074d18       _timeGetTime@0             00475d18 f   winmm:WINMM.dll
 0001:00074d1e       _PlaySoundA@12             00475d1e f   winmm:WINMM.dll
 0001:00074d24       ?AfxSocketInit@@YGHPAUWSAData@@@Z 00475d24 f   mfcn42d:MFCN42D.DLL
 0001:00074d2a       _ntohs@4                   00475d2a f   wsock32:WSOCK32.dll
 0001:00074d30       _htons@4                   00475d30 f   wsock32:WSOCK32.dll
 0001:00074d36       _send@16                   00475d36 f   wsock32:WSOCK32.dll
 0001:00074d3c       _WSAGetLastError@0         00475d3c f   wsock32:WSOCK32.dll
 0001:00074d42       _ntohl@4                   00475d42 f   wsock32:WSOCK32.dll
 0001:00074d48       _htonl@4                   00475d48 f   wsock32:WSOCK32.dll
 0001:00074d4e       _gethostbyaddr@12          00475d4e f   wsock32:WSOCK32.dll
 0001:00074d54       _inet_addr@4               00475d54 f   wsock32:WSOCK32.dll
 0001:00074d5a       _gethostbyname@4           00475d5a f   wsock32:WSOCK32.dll
 0001:00074d60       _closesocket@4             00475d60 f   wsock32:WSOCK32.dll
 0001:00074d66       _connect@12                00475d66 f   wsock32:WSOCK32.dll
 0001:00074d6c       _socket@12                 00475d6c f   wsock32:WSOCK32.dll
 0001:00074d72       _inet_ntoa@4               00475d72 f   wsock32:WSOCK32.dll
 0001:00074d78       _recv@16                   00475d78 f   wsock32:WSOCK32.dll
 0001:00074d80       _WinMain@16                00475d80 f   mfcs42d:appmodul.obj
 0001:00074da0       ?AfxInitialize@@YGHHK@Z    00475da0 f   mfcs42d:appmodul.obj
 0001:00074e36       __itoa                     00475e36 f   msvcrtd:MSVCRTD.dll
 0001:00074e3c       __setmbcp                  00475e3c f   msvcrtd:MSVCRTD.dll
 0001:00074e42       ?AfxWinMain@@YGHPAUHINSTANCE__@@0PADH@Z 00475e42 f   mfc42d:MFC42D.DLL
 0001:00074e48       ?AfxGetModuleState@@YGPAVAFX_MODULE_STATE@@XZ 00475e48 f   mfc42d:MFC42D.DLL
 0002:0000001c       __real@4@3fffa666660000000000 0048001c     community.obj
 0002:00000020       ??_7Community@@6B@         00480020     community.obj
 0002:000000b4       ??_7House@@6B@             004800b4     house.obj
 0002:00000148       ??_7RemotePlayer@@6B@      00480148     remoteplayer.obj
 0002:000001dc       ??_7StateBet@@6B@          004801dc     statebet.obj
 0002:000001f8       ??_7StateDealPocket@@6B@   004801f8     statedealpocket.obj
 0002:00000214       ??_7StatePromptPostBlind@@6B@ 00480214     statepromptpostblind.obj
 0002:00000230       ??_7PDUHeader@Network@@6B@ 00480230     network.obj
 0002:0000024c       ??_7PDUNetworkError@Network@@6B@ 0048024c     network.obj
 0002:00000268       ??_7PDUSetupTableLogin@Network@@6B@ 00480268     network.obj
 0002:00000284       ??_7PDUSetupTableAccept@Network@@6B@ 00480284     network.obj
 0002:000002a0       ??_7PDUSetupTableReject@Network@@6B@ 004802a0     network.obj
 0002:000002bc       ??_7PDUSetupBuyInQuery@Network@@6B@ 004802bc     network.obj
 0002:000002d8       __real@8@4005c800000000000000 004802d8     network.obj
 0002:000002e4       ??_7PDUSetupBuyInRequest@Network@@6B@ 004802e4     network.obj
 0002:00000300       ??_7PDUSetupTableLogout@Network@@6B@ 00480300     network.obj
 0002:0000031c       ??_7PDUSetupTableLogoutConfirm@Network@@6B@ 0048031c     network.obj
 0002:00000338       ??_7PDUButton@Network@@6B@ 00480338     network.obj
 0002:00000354       ??_7PDUBlindRequest@Network@@6B@ 00480354     network.obj
 0002:00000370       ??_7PDUPostBlind@Network@@6B@ 00480370     network.obj
 0002:0000038c       ??_7PDUSitInQuery@Network@@6B@ 0048038c     network.obj
 0002:000003a8       ??_7PDUSitIn@Network@@6B@  004803a8     network.obj
 0002:000003c4       ??_7PDUSitOut@Network@@6B@ 004803c4     network.obj
 0002:000003e0       ??_7PDUShowCardsQuery@Network@@6B@ 004803e0     network.obj
 0002:000003fc       ??_7PDUShowCards@Network@@6B@ 004803fc     network.obj
 0002:00000418       ??_7PDUCommunityCard@Network@@6B@ 00480418     network.obj
 0002:00000434       ??_7PDUBlindCard@Network@@6B@ 00480434     network.obj
 0002:00000450       ??_7PDUPocketCard@Network@@6B@ 00480450     network.obj
 0002:0000046c       ??_7PDUDealCards@Network@@6B@ 0048046c     network.obj
 0002:00000488       ??_7PDUActionRequest@Network@@6B@ 00480488     network.obj
 0002:000004a4       ??_7PDUActionRequestSpreadLimit@Network@@6B@ 004804a4     network.obj
 0002:000004c0       ??_7PDUAction@Network@@6B@ 004804c0     network.obj
 0002:000004dc       ??_7PDUActionEcho@Network@@6B@ 004804dc     network.obj
 0002:000004f8       ??_7PDUAnnounce@Network@@6B@ 004804f8     network.obj
 0002:00000514       ??_7PDUTournamentParams@Network@@6B@ 00480514     network.obj
 0002:00000530       ??_7PDUTournamentPlayerFinished@Network@@6B@ 00480530     network.obj
 0002:0000054c       ??_7PDUReseat@Network@@6B@ 0048054c     network.obj
 0002:00000568       ??_7PDUChat@Network@@6B@   00480568     network.obj
 0002:00000584       ??_7PDUNotify@Network@@6B@ 00480584     network.obj
 0002:000005a0       ??_7PDUUpgradeRequest@Network@@6B@ 004805a0     network.obj
 0002:000005bc       ??_7PDUPing@Network@@6B@   004805bc     network.obj
 0002:000005d8       ??_7PDUGameNumber@Network@@6B@ 004805d8     network.obj
 0002:000005f4       ??_7PDUPlayer@Network@@6B@ 004805f4     network.obj
 0002:00000610       ??_7PDUAllIn@Network@@6B@  00480610     network.obj
 0002:0000062c       ??_7PDUAnteAllIn@Network@@6B@ 0048062c     network.obj
 0002:00000648       ??_7PDUErrorClient@Network@@6B@ 00480648     network.obj
 0002:00000664       ??_7PDUErrorServer@Network@@6B@ 00480664     network.obj
 0002:00000680       ??_7PDUCreditCardEdit@Network@@6B@ 00480680     pducreditcardedit.obj
 0002:0000069c       ??_7PDUCreditCardReply@Network@@6B@ 0048069c     pducreditcardresponse.obj
 0002:000006b8       ??_7PDUDealCardsFlex@Network@@6B@ 004806b8     pdudealcardsflex.obj
 0002:000006d4       ??_7PDUEditRules@Network@@6B@ 004806d4     pdueditrules.obj
 0002:000006f0       ??_7PDUHandLogRequest@Network@@6B@ 004806f0     pduhandlogrequest.obj
 0002:0000070c       ??_7PDUPlayerInfo@Network@@6B@ 0048070c     pduplayerinfo.obj
 0002:00000728       ??_7PDUShowdown@Network@@6B@ 00480728     pdushowdown.obj
 0002:00000744       ??_7PDUVerboseTableReply@Network@@6B@ 00480744     pduverbosetablereply.obj
 0002:00000760       ??_7Server@Network@@6B@    00480760     server.obj
 0002:00000774       ??_7PDUPong@Network@@6B@   00480774     server.obj
 0002:00000790       ??_7LoungeServer@Network@@6B@ 00480790     server.obj
 0002:000007a4       ??_7PDULoungeLogout@Network@@6B@ 004807a4     server.obj
 0002:000007c0       ??_7PDULoungeSurvey@Network@@6B@ 004807c0     server.obj
 0002:000007dc       ??_7PDULoungeSitDown@Network@@6B@ 004807dc     server.obj
 0002:000007f8       ??_7PDULoungeObserve@Network@@6B@ 004807f8     server.obj
 0002:00000814       ??_7PDULoungeCancelSitDown@Network@@6B@ 00480814     server.obj
 0002:00000830       ??_7PDULoungeLogoutCertain@Network@@6B@ 00480830     server.obj
 0002:0000084c       ??_7PDUVerboseTableQuery@Network@@6B@ 0048084c     server.obj
 0002:00000868       ??_7PDUTournamentDetailsQuery@Network@@6B@ 00480868     server.obj
 0002:00000884       ??_7PDULoungeTableLogout@Network@@6B@ 00480884     server.obj
 0002:000008a0       ??_7PDUBalanceQuery@Network@@6B@ 004808a0     server.obj
 0002:000008bc       ??_7PDUCreditCardQuery@Network@@6B@ 004808bc     server.obj
 0002:000008d8       ??_7PDUCreditCardQuery2@Network@@6B@ 004808d8     server.obj
 0002:000008f4       ??_7PDULoungeBuyInRequest@Network@@6B@ 004808f4     server.obj
 0002:00000910       ??_7PDULoungeCashOutRequest@Network@@6B@ 00480910     server.obj
 0002:0000092c       ??_7PDULoungeTransactionQuery@Network@@6B@ 0048092c     server.obj
 0002:00000948       ??_7TableServer@Network@@6B@ 00480948     server.obj
 0002:0000095c       ??_7PDUSetupObserverLogin@Network@@6B@ 0048095c     server.obj
 0002:00000978       ??_7PDUSetupObserverLogout@Network@@6B@ 00480978     server.obj
 0002:00000994       ??_7PDUBuyInMore@Network@@6B@ 00480994     server.obj
 0002:000009b0       ??_7PDUActionSpreadLimit@Network@@6B@ 004809b0     server.obj
 0002:000009cc       ??_7PDURefuseBlind@Network@@6B@ 004809cc     server.obj
 0002:000009e8       ??_7PDUHeartBeat@Network@@6B@ 004809e8     server.obj
 0002:00000a04       ??_7Cards@Base@@6B@        00480a04     cards.obj
 0002:00000a08       ??_7GameLogic@Base@@6B@    00480a08     gamelogic.obj
 0002:00000a50       ??_7GameState@Base@@6B@    00480a50     gamestate.obj
 0002:00000a6c       ??_7AnimateState@Base@@6B@ 00480a6c     gamestate.obj
 0002:00000a88       ??_7Chips@Base@@6B@        00480a88     graphic_chips.obj
 0002:00000a98       __real@4@3fffd9999a0000000000 00480a98     player.obj
 0002:00000a9c       __real@4@3fffc000000000000000 00480a9c     player.obj
 0002:00000aa0       ??_7Player@Base@@6B@       00480aa0     player.obj
 0002:00000b34       __real@4@3fff99999a0000000000 00480b34     player.obj
 0002:00000b38       __real@4@3ffccccccd0000000000 00480b38     player.obj
 0002:00000b3c       __real@4@4006ff00000000000000 00480b3c     player.obj
 0002:00000b40       ??_7StateAnte@Base@@6B@    00480b40     stateante.obj
 0002:00000b5c       ??_7StateDealCommunity@@6B@ 00480b5c     statedealcommunity.obj
 0002:00000b78       ??_7StateDealPocket2@@6B@  00480b78     statedealpocket2.obj
 0002:00000b94       ??_7StateDealUpCard@@6B@   00480b94     statedealupcard.obj
 0002:00000bb0       ??_7StateShowdown@@6B@     00480bb0     stateshowdown.obj
 0002:00000bcc       ??_7StateWait@Base@@6B@    00480bcc     statewait.obj
 0002:00000be8       ??_7SyncObject@Base@@6B@   00480be8     sync.obj
 0002:00000bf8       ??_7Mutex@Base@@6B@        00480bf8     sync.obj
 0002:00000c08       ??_7Event@Base@@6B@        00480c08     sync.obj
 0002:00000c18       __real@8@400f8000000000000000 00480c18     CDib.obj
 0002:00000c24       ??_7CDibFileHandlerTarga@@6B@ 00480c24     Dib File Handler Targa.obj
 0002:00000c34       ??_7CDibFileHandler@@6B@   00480c34     Dib File Handler.obj
 0002:00000c48       ?messageMap@CAboutDlg@@1UAFX_MSGMAP@@B 00480c48     aboutdlg.obj
 0002:00000c50       ?_messageEntries@CAboutDlg@@0QBUAFX_MSGMAP_ENTRY@@B 00480c50     aboutdlg.obj
 0002:00000c8c       ??_7CAboutDlg@@6B@         00480c8c     aboutdlg.obj
 0002:00000db8       ?messageMap@CActionBar@@1UAFX_MSGMAP@@B 00480db8     actionbar.obj
 0002:00000dc0       ?_messageEntries@CActionBar@@0QBUAFX_MSGMAP_ENTRY@@B 00480dc0     actionbar.obj
 0002:00000f7c       ??_7CActionBar@@6B@        00480f7c     actionbar.obj
 0002:00001080       __real@4@3ffd99999a0000000000 00481080     actionbar.obj
 0002:00001088       ?messageMap@CActionButton@@1UAFX_MSGMAP@@B 00481088     ActionButton.obj
 0002:00001090       ?_messageEntries@CActionButton@@0QBUAFX_MSGMAP_ENTRY@@B 00481090     ActionButton.obj
 0002:000010cc       ??_7CActionButton@@6B@     004810cc     ActionButton.obj
 0002:000011b8       ?messageMap@CBuyInQueryDlg@@1UAFX_MSGMAP@@B 004811b8     buyinquerydlg.obj
 0002:000011c0       ?_messageEntries@CBuyInQueryDlg@@0QBUAFX_MSGMAP_ENTRY@@B 004811c0     buyinquerydlg.obj
 0002:000011e0       ??_7CBuyInQueryDlg@@6B@    004811e0     buyinquerydlg.obj
 0002:000012e8       ?messageMap@CChatDlg@@1UAFX_MSGMAP@@B 004812e8     chatdlg.obj
 0002:000012f0       ?_messageEntries@CChatDlg@@0QBUAFX_MSGMAP_ENTRY@@B 004812f0     chatdlg.obj
 0002:000013d8       ??_7CChatDlg@@6B@          004813d8     chatdlg.obj
 0002:000014e0       ?classCChatEdit@CChatEdit@@2UCRuntimeClass@@B 004814e0     ChatEdit.obj
 0002:000014f8       ?messageMap@CChatEdit@@1UAFX_MSGMAP@@B 004814f8     ChatEdit.obj
 0002:00001500       ?_messageEntries@CChatEdit@@0QBUAFX_MSGMAP_ENTRY@@B 00481500     ChatEdit.obj
 0002:00001524       ??_7CChatEdit@@6B@         00481524     ChatEdit.obj
 0002:00001610       ?messageMap@CChatFrame@@1UAFX_MSGMAP@@B 00481610     chatframe.obj
 0002:00001618       ?_messageEntries@CChatFrame@@0QBUAFX_MSGMAP_ENTRY@@B 00481618     chatframe.obj
 0002:00001638       ??_7CChatFrame@@6B@        00481638     chatframe.obj
 0002:00001768       ?classCChatView@CChatView@@2UCRuntimeClass@@B 00481768     ChatView.obj
 0002:00001780       ?messageMap@CChatView@@1UAFX_MSGMAP@@B 00481780     ChatView.obj
 0002:00001788       ?_messageEntries@CChatView@@0QBUAFX_MSGMAP_ENTRY@@B 00481788     ChatView.obj
 0002:00001820       ??_7CChatView@@6B@         00481820     ChatView.obj
 0002:00001968       ??_7PostDebugPrint@@6B@    00481968     ChatView.obj
 0002:00001988       ?messageMap@CCheckButton@@1UAFX_MSGMAP@@B 00481988     checkbutton.obj
 0002:00001990       ?_messageEntries@CCheckButton@@0QBUAFX_MSGMAP_ENTRY@@B 00481990     checkbutton.obj
 0002:000019cc       ??_7CCheckButton@@6B@      004819cc     checkbutton.obj
 0002:00001ab8       ?messageMap@CCommentDialog@@1UAFX_MSGMAP@@B 00481ab8     commentdialog.obj
 0002:00001ac0       ?_messageEntries@CCommentDialog@@0QBUAFX_MSGMAP_ENTRY@@B 00481ac0     commentdialog.obj
 0002:00001ae0       ??_7CCommentDialog@@6B@    00481ae0     commentdialog.obj
 0002:00001be4       ??_7Global@@6B@            00481be4     global.obj
 0002:00001be8       ?messageMap@CInputDlg@@1UAFX_MSGMAP@@B 00481be8     inputdlg.obj
 0002:00001bf0       ?_messageEntries@CInputDlg@@0QBUAFX_MSGMAP_ENTRY@@B 00481bf0     inputdlg.obj
 0002:00001c10       ??_7CInputDlg@@6B@         00481c10     inputdlg.obj
 0002:00001d18       ?messageMap@CLoginDlg@@1UAFX_MSGMAP@@B 00481d18     logindlg.obj
 0002:00001d20       ?_messageEntries@CLoginDlg@@0QBUAFX_MSGMAP_ENTRY@@B 00481d20     logindlg.obj
 0002:00001d78       ??_7CLoginDlg@@6B@         00481d78     logindlg.obj
 0002:00001e7c       ??_7CMailDocument@@6B@     00481e7c     maildoc.obj
 0002:00001e80       ?messageMap@CMainWnd@@1UAFX_MSGMAP@@B 00481e80     mainwnd.obj
 0002:00001e88       ?_messageEntries@CMainWnd@@0QBUAFX_MSGMAP_ENTRY@@B 00481e88     mainwnd.obj
 0002:000021cc       ??_7CMainWnd@@6B@          004821cc     mainwnd.obj
 0002:000022fc       __real@4@3ffec000000000000000 004822fc     mainwnd.obj
 0002:00002300       ?messageMap@COptionsDlg@@1UAFX_MSGMAP@@B 00482300     optionsdlg.obj
 0002:00002308       ?_messageEntries@COptionsDlg@@0QBUAFX_MSGMAP_ENTRY@@B 00482308     optionsdlg.obj
 0002:0000242c       ??_7COptionsDlg@@6B@       0048242c     optionsdlg.obj
 0002:00002530       ??_7COwnerDrawMenu@@6B@    00482530     ownerdrawmenu.obj
 0002:00002558       ?messageMap@CPromptInputDlg@@1UAFX_MSGMAP@@B 00482558     promptinputdlg.obj
 0002:00002560       ?_messageEntries@CPromptInputDlg@@0QBUAFX_MSGMAP_ENTRY@@B 00482560     promptinputdlg.obj
 0002:00002580       ??_7CPromptInputDlg@@6B@   00482580     promptinputdlg.obj
 0002:00002688       ?messageMap@CSplashWnd@@1UAFX_MSGMAP@@B 00482688     splashwnd.obj
 0002:00002690       ?_messageEntries@CSplashWnd@@0QBUAFX_MSGMAP_ENTRY@@B 00482690     splashwnd.obj
 0002:00002704       ??_7CSplashWnd@@6B@        00482704     splashwnd.obj
 0002:000027f0       ?classCTableView@CTableView@@2UCRuntimeClass@@B 004827f0     tableview.obj
 0002:00002808       ?messageMap@CTableView@@1UAFX_MSGMAP@@B 00482808     tableview.obj
 0002:00002810       ?_messageEntries@CTableView@@0QBUAFX_MSGMAP_ENTRY@@B 00482810     tableview.obj
 0002:00002954       ??_7CTableView@@6B@        00482954     tableview.obj
 0002:00002aa0       ?messageMap@CWaitDlg@@1UAFX_MSGMAP@@B 00482aa0     waitdlg.obj
 0002:00002aa8       ?_messageEntries@CWaitDlg@@0QBUAFX_MSGMAP_ENTRY@@B 00482aa8     waitdlg.obj
 0002:00002ac8       ??_7CWaitDlg@@6B@          00482ac8     waitdlg.obj
 0002:00002be0       __real@8@4001a000000000000000 00482be0     chips.obj
 0002:00002bf0       __real@8@00000000000000000000 00482bf0     chips.obj
 0002:00002c00       __real@8@40188000000000000000 00482c00     chips.obj
 0002:00002c0c       ??_7CStringOutput@@6B@     00482c0c     stringoutput.obj
 0002:00002c10       ?messageMap@CPokerApp@@1UAFX_MSGMAP@@B 00482c10     Poker.obj
 0002:00002c18       ?_messageEntries@CPokerApp@@0QBUAFX_MSGMAP_ENTRY@@B 00482c18     Poker.obj
 0002:00002c54       ??_7CPokerApp@@6B@         00482c54     Poker.obj
 0002:00002d18       _IID_IDocHostUIHandlerDispatch 00482d18     mfcs42d:stdafx.obj
 0002:00002d28       _IID_IInternalConnection   00482d28     mfcs42d:stdafx.obj
 0002:00002d38       _IID_IAxWinAmbientDispatch 00482d38     mfcs42d:stdafx.obj
 0002:00002d48       _IID_IAxWinHostWindow      00482d48     mfcs42d:stdafx.obj
 0002:00002d58       _IID_IRegistrar            00482d58     mfcs42d:stdafx.obj
 0002:00002d68       _CLSID_Registrar           00482d68     mfcs42d:stdafx.obj
 0002:00002d78       _LIBID_ATLLib              00482d78     mfcs42d:stdafx.obj
 0002:00002d8c       ??_7type_info@@6B@         00482d8c     msvcrtd:ti_inst.obj
 0002:00002f78       ??_R1A@?0A@A@type_info@@8  00482f78     msvcrtd:ti_inst.obj
 0002:00002f90       ??_R2type_info@@8          00482f90     msvcrtd:ti_inst.obj
 0002:00002f98       ??_R3type_info@@8          00482f98     msvcrtd:ti_inst.obj
 0002:00002fa8       ??_R4type_info@@6B@        00482fa8     msvcrtd:ti_inst.obj
 0002:00008fa0       __CT??_R0PAX@84            00488fa0     commentdialog.obj
 0002:00008fc0       __CT??_R0PAVCObject@@@84   00488fc0     commentdialog.obj
 0002:00008fe0       __CT??_R0PAVCException@@@84 00488fe0     commentdialog.obj
 0002:00009000       __CT??_R0PAVCFileException@@@84 00489000     commentdialog.obj
 0002:00009020       __CTA4PAVCFileException@@  00489020     commentdialog.obj
 0002:00009038       __TI4PAVCFileException@@   00489038     commentdialog.obj
 0003:00000000       ___xc_a                    0048b000     msvcrtd:cinitexe.obj
 0003:00000394       ___xc_z                    0048b394     msvcrtd:cinitexe.obj
 0003:00000498       ___xi_a                    0048b498     msvcrtd:cinitexe.obj
 0003:0000059c       ___xi_z                    0048b59c     msvcrtd:cinitexe.obj
 0003:000006a0       ?g_szName@?%C:\Documents and Settings\administrator\Desktop\poker_source\client\tem\community.cpp257720276@@3PBDB 0048b6a0     community.obj
 0003:00000a70       ?gszHouse@?%C:\Documents and Settings\administrator\Desktop\poker_source\client\tem\house.cpp2585930404@@3PBDB 0048ba70     house.obj
 0003:00000aec       ?g_szOutOfTimers@@3PBDB    0048baec     statebet.obj
 0003:00000af0       ?g_szToAct@?%C:\Documents and Settings\administrator\Desktop\poker_source\client\tem\statebet.cpp1793617049@@3PBDB 0048baf0     statebet.obj
 0003:00000af4       ?g_szFold@?%C:\Documents and Settings\administrator\Desktop\poker_source\client\tem\statebet.cpp1793617049@@3PBDB 0048baf4     statebet.obj
 0003:00000af8       ?g_szCheck@?%C:\Documents and Settings\administrator\Desktop\poker_source\client\tem\statebet.cpp1793617049@@3PBDB 0048baf8     statebet.obj
 0003:00000afc       ?g_szBetFmt@?%C:\Documents and Settings\administrator\Desktop\poker_source\client\tem\statebet.cpp1793617049@@3PBDB 0048bafc     statebet.obj
 0003:00000b00       ?g_szCall@?%C:\Documents and Settings\administrator\Desktop\poker_source\client\tem\statebet.cpp1793617049@@3PBDB 0048bb00     statebet.obj
 0003:00000b04       ?g_szCallFmt@?%C:\Documents and Settings\administrator\Desktop\poker_source\client\tem\statebet.cpp1793617049@@3PBDB 0048bb04     statebet.obj
 0003:00000b08       ?g_szRaiseFmt@?%C:\Documents and Settings\administrator\Desktop\poker_source\client\tem\statebet.cpp1793617049@@3PBDB 0048bb08     statebet.obj
 0003:00000b0c       ?g_szWaitingFmt@?%C:\Documents and Settings\administrator\Desktop\poker_source\client\tem\statebet.cpp1793617049@@3PBDB 0048bb0c     statebet.obj
 0003:000015dc       ??_C@_0O@DIDD@?4?2base?1card?4h?$AA@ 0048c5dc     statedealpocket.obj
 0003:000015ec       ?g_szPostPromptFmt@?%C:\Documents and Settings\administrator\Desktop\poker_source\client\tem\statepromptpostblind.cpp290759316@@3PBDB 0048c5ec     statepromptpostblind.obj
 0003:000015f0       ?g_szPostFmt@?%C:\Documents and Settings\administrator\Desktop\poker_source\client\tem\statepromptpostblind.cpp290759316@@3PBDB 0048c5f0     statepromptpostblind.obj
 0003:000015f4       ?g_szAntePromptFmt@?%C:\Documents and Settings\administrator\Desktop\poker_source\client\tem\statepromptpostblind.cpp290759316@@3PBDB 0048c5f4     statepromptpostblind.obj
 0003:000015f8       ?g_szAnteFmt@?%C:\Documents and Settings\administrator\Desktop\poker_source\client\tem\statepromptpostblind.cpp290759316@@3PBDB 0048c5f8     statepromptpostblind.obj
 0003:000015fc       ?g_szSitOut@?%C:\Documents and Settings\administrator\Desktop\poker_source\client\tem\statepromptpostblind.cpp290759316@@3PBDB 0048c5fc     statepromptpostblind.obj
 0003:00001600       ?g_szWaitingOthers@?%C:\Documents and Settings\administrator\Desktop\poker_source\client\tem\statepromptpostblind.cpp290759316@@3PBDB 0048c600     statepromptpostblind.obj
 0003:00001604       ?g_szBlindStatusFmt@?%C:\Documents and Settings\administrator\Desktop\poker_source\client\tem\statepromptpostblind.cpp290759316@@3PBDB 0048c604     statepromptpostblind.obj
 0003:00001608       ?g_szWaitingFmt@?%C:\Documents and Settings\administrator\Desktop\poker_source\client\tem\statepromptpostblind.cpp290759316@@3PBDB 0048c608     statepromptpostblind.obj
 0003:000017f0       ?g_PDUAllocators@Network@@3PAUPDUAllocator@1@A 0048c7f0     network.obj
 0003:00001f18       ??_C@_01BJG@?6?$AA@        0048cf18     network.obj
 0003:00001f1c       ??_C@_0BH@FMKD@?5?5?5type?3?5?$CFd?5length?3?5?$CFd?$AA@ 0048cf1c     network.obj
 0003:00001f38       ??_C@_0P@DJA@s?4c_str?$CI?$CJ?5?$DN?$DN?50?$AA@ 0048cf38     network.obj
 0003:00001f4c       ??_C@_0CI@PDGK@?$CK?$CK?$CK?5PDU?5Assertion?5Failed?3?5expres@ 0048cf4c     network.obj
 0003:00001f7c       ??_C@_0BL@GECE@length_?5?$DO?$DN?5PDU_HEADER_SIZE?$AA@ 0048cf7c     network.obj
 0003:00001f9c       ??_C@_08MLKF@?8?5file?3?5?$AA@ 0048cf9c     network.obj
 0003:00001fa8       ??_C@_0BE@HICH@?4?2network?1network?4h?$AA@ 0048cfa8     network.obj
 0003:00001fc0       ??_C@_07PKFL@?5line?3?5?$AA@ 0048cfc0     network.obj
 0003:00001fcc       ??_C@_01KOI@x?$AA@         0048cfcc     network.obj
 0003:00001fd0       ??_C@_0BN@ODCA@?5?5?5username?3?5?$CFs?5password?3?5?$CFs?$AA@ 0048cfd0     network.obj
 0003:00001ff4       ??_C@_0BO@KKPN@?9?9?9?5Send?3?5Table?5Login?5PDU?5?9?9?9?$AA@ 0048cff4     network.obj
 0003:00002018       ??_C@_0BE@DNED@msglen?5?$DN?$DN?5?$CIlen?5?9?51?$CJ?$AA@ 0048d018     network.obj
 0003:00002030       ??_C@_0BF@LDPA@?4?2network?1pdusetup?4h?$AA@ 0048d030     network.obj
 0003:0000204c       ??_C@_0BI@DEHO@?5?5?5start?5of?5message?3?5?$CFs?$AA@ 0048d04c     network.obj
 0003:00002068       ??_C@_0BP@MBG@?9?9?9?5Recv?3?5Table?5Accept?5PDU?5?9?9?9?$AA@ 0048d068     network.obj
 0003:00002090       ??_C@_0BP@GAED@?9?9?9?5Recv?3?5Table?5Reject?5PDU?5?9?9?9?$AA@ 0048d090     network.obj
 0003:000020b8       ??_C@_0BE@CCEE@length_?5?$DN?$DN?5sizeOf?$CI?$CJ?$AA@ 0048d0b8     network.obj
 0003:000020d0       ??_C@_0N@GDAA@?5?5?5limit?3?5?$CFf?$AA@ 0048d0d0     network.obj
 0003:000020e0       ??_C@_0BP@MFIE@?9?9?9?5Recv?3?5Buy?5In?5Query?5PDU?5?9?9?9?$AA@ 0048d0e0     network.obj
 0003:00002108       ??_C@_0CB@OFGI@?9?9?9?5Send?3?5Buy?5In?5Request?5PDU?5?9?9?9@ 0048d108     network.obj
 0003:00002130       ??_C@_0BP@GOGB@?9?9?9?5Send?3?5Table?5Logout?5PDU?5?9?9?9?$AA@ 0048d130     network.obj
 0003:00002158       ??_C@_0CH@JMPK@?9?9?9?5Recv?3?5Table?5Logout?5Confirm?5P@ 0048d158     network.obj
 0003:00002188       ??_C@_0BC@JCCB@?5?5?5dealerslot?3?5?$CFd?$AA@ 0048d188     network.obj
 0003:000021a0       ??_C@_0BB@HLAL@dealerslot_?5?$DM?510?$AA@ 0048d1a0     network.obj
 0003:000021b4       ??_C@_0BG@DHGM@?4?2network?1pdubutton?4h?$AA@ 0048d1b4     network.obj
 0003:000021d0       ??_C@_0BJ@OCLN@?9?9?9?5Recv?3?5Button?5PDU?5?9?9?9?$AA@ 0048d1d0     network.obj
 0003:000021f0       ??_C@_0CF@DAKH@?5?5?5player?3?5?$CFd?5value?3?5?$CF9?42f?5msecs@ 0048d1f0     network.obj
 0003:0000221c       ??_C@_0N@DLKO@player_?5?$DM?510?$AA@ 0048d21c     network.obj
 0003:0000222c       ??_C@_0BM@JKLE@?4?2network?1pdublindrequest?4h?$AA@ 0048d22c     network.obj
 0003:00002250       ??_C@_0CF@GAJH@?9?9?9?5Recv?3?5Blind?5Post?5Request?5PDU@ 0048d250     network.obj
 0003:0000227c       ??_C@_0BN@OCOM@?9?9?9?5Send?3?5Blind?5Post?5PDU?5?9?9?9?$AA@ 0048d27c     network.obj
 0003:000022a0       ??_C@_0BO@DGBG@?9?9?9?5Recv?3?5SitIn?5Query?5PDU?5?9?9?9?$AA@ 0048d2a0     network.obj
 0003:000022c4       ??_C@_0BJ@OCCP@?9?9?9?5Send?3?5Sit?5In?5PDU?5?9?9?9?$AA@ 0048d2c4     network.obj
 0003:000022e4       ??_C@_0BK@JGCJ@?9?9?9?5Send?3?5Sit?5Out?5PDU?5?9?9?9?$AA@ 0048d2e4     network.obj
 0003:00002304       ??_C@_0CD@JJCD@?9?9?9?5Recv?3?5Show?5Cards?5Query?5PDU?5?9@ 0048d304     network.obj
 0003:00002330       ??_C@_0P@OPPG@?5?5?5action?3?5?$CFd?5?$AA@ 0048d330     network.obj
 0003:00002344       ??_C@_0BN@PPCI@?9?9?9?5Send?3?5Show?5Cards?5PDU?5?9?9?9?$AA@ 0048d344     network.obj
 0003:00002368       ??_C@_0BF@NKAL@?5?5?5card?3?5?$CFd?5suit?3?5?$CFd?$AA@ 0048d368     network.obj
 0003:00002384       ??_C@_0CF@PLJC@suit_?5?$DO?5SuitBegin?5?$CG?$CG?5suit_?5?$DM?5Sui@ 0048d384     network.obj
 0003:000023b0       ??_C@_0BJ@NJDC@card_?5?$DO?$DN?52?5?$CG?$CG?5card_?5?$DM?515?$AA@ 0048d3b0     network.obj
 0003:000023d0       ??_C@_0BN@PMA@?4?2network?1pducommunitycard?4h?$AA@ 0048d3d0     network.obj
 0003:000023f4       ??_C@_0CB@NBOE@?9?9?9?5Recv?3?5Community?5Card?5PDU?5?9?9?9@ 0048d3f4     network.obj
 0003:0000241c       ??_C@_0O@DOAD@?5?5?5player?3?5?$CFd?$AA@ 0048d41c     network.obj
 0003:0000242c       ??_C@_0BJ@IFLH@?4?2network?1pdublindcard?4h?$AA@ 0048d42c     network.obj
 0003:0000244c       ??_C@_0BN@NIGN@?9?9?9?5Recv?3?5Blind?5Card?5PDU?5?9?9?9?$AA@ 0048d44c     network.obj
 0003:00002470       ??_C@_0BO@BGLE@?9?9?9?5Recv?3?5Pocket?5Card?5PDU?5?9?9?9?$AA@ 0048d470     network.obj
 0003:00002494       ??_C@_0BP@DPHG@?5?5?5card?3?5?$CFd?5suit?3?5?$CFd?5msecs?3?5?$CFd?$AA@ 0048d494     network.obj
 0003:000024bc       ??_C@_09FPGI@suit_?5?$DM?54?$AA@ 0048d4bc     network.obj
 0003:000024c8       ??_C@_0BK@FAEN@?4?2network?1pdupocketcard?4h?$AA@ 0048d4c8     network.obj
 0003:000024e8       ??_C@_0CD@NHAH@?5?5?5dealer_?3?5?$CFd?5card1?3?5?$CFd?5suit1?3?5@ 0048d4e8     network.obj
 0003:00002514       ??_C@_0CB@JEME@?5?5?5card2?3?5?$CFd?5suit2?3?5?$CFd?5msecs?3?5?$CFd@ 0048d514     network.obj
 0003:0000253c       ??_C@_0CH@PCBG@suit2_?5?$DO?5SuitBegin?5?$CG?$CG?5suit2_?5?$DM?5S@ 0048d53c     network.obj
 0003:0000256c       ??_C@_0BL@CCDB@card2_?5?$DO?$DN?52?5?$CG?$CG?5card2_?5?$DM?515?$AA@ 0048d56c     network.obj
 0003:0000258c       ??_C@_0CH@JMBI@suit1_?5?$DO?5SuitBegin?5?$CG?$CG?5suit2_?5?$DM?5S@ 0048d58c     network.obj
 0003:000025bc       ??_C@_0BL@DODP@card1_?5?$DO?$DN?52?5?$CG?$CG?5card1_?5?$DM?515?$AA@ 0048d5bc     network.obj
 0003:000025dc       ??_C@_0N@DLH@dealer_?5?$DM?510?$AA@ 0048d5dc     network.obj
 0003:000025ec       ??_C@_0BJ@JMAP@?4?2network?1pdudealcards?4h?$AA@ 0048d5ec     network.obj
 0003:0000260c       ??_C@_0BN@CMHL@?9?9?9?5Recv?3?5Deal?5Cards?5PDU?5?9?9?9?$AA@ 0048d60c     network.obj
 0003:00002630       ??_C@_0CL@JIPP@?5?5?5player?3?5?$CFd?5value?3?5?$CFf?5raise?3?5?$CF@ 0048d630     network.obj
 0003:00002664       ??_C@_0BN@DGLL@?4?2network?1pduactionrequest?4h?$AA@ 0048d664     network.obj
 0003:00002688       ??_C@_0CB@PHDL@?9?9?9?5Recv?3?5Action?5Request?5PDU?5?9?9?9@ 0048d688     network.obj
 0003:000026b0       ??_C@_0DJ@KHMB@?5?5?5player?3?5?$CFd?5value?3?5?$CFf?5raiseLo?3@ 0048d6b0     network.obj
 0003:000026f4       ??_C@_0CI@EIEM@?4?2network?1pduactionrequestspread@ 0048d6f4     network.obj
 0003:00002724       ??_C@_0CO@HEKF@?9?9?9?5Recv?3?5Spread?5Limit?5Action?5Re@ 0048d724     network.obj
 0003:0000275c       ??_C@_0BJ@ELOK@?9?9?9?5Send?3?5Action?5PDU?5?9?9?9?$AA@ 0048d75c     network.obj
 0003:0000277c       ??_C@_0O@BGNA@?5?5?5action?3?5?$CFd?$AA@ 0048d77c     network.obj
 0003:0000278c       ??_C@_0EM@IGBB@action_?5?$DN?$DN?5Call?5?$HM?$HM?5action_?5?$DN?$DN?5Fo@ 0048d78c     network.obj
 0003:000027e8       ??_C@_0BG@MCPH@?4?2network?1pduaction?4h?$AA@ 0048d7e8     network.obj
 0003:00002804       ??_C@_0BJ@EPMO@?9?9?9?5Recv?3?5Action?5PDU?5?9?9?9?$AA@ 0048d804     network.obj
 0003:00002824       ??_C@_0CF@KGAJ@?5?5?5slot?3?5?$CFd?5action?3?5?$CFd?5amount?3?5?$CF@ 0048d824     network.obj
 0003:00002850       ??_C@_0JG@EMNN@action_?5?$DN?$DN?5PDUAction?3?3Call?5?$HM?$HM?5ac@ 0048d850     network.obj
 0003:00002904       ??_C@_0BK@LFFB@?4?2network?1pduactionecho?4h?$AA@ 0048d904     network.obj
 0003:00002924       ??_C@_0BO@JLMF@?9?9?9?5Recv?3?5Action?5Echo?5PDU?5?9?9?9?$AA@ 0048d924     network.obj
 0003:00002948       ??_C@_0BI@LONE@?4?2network?1pduannounce?4h?$AA@ 0048d948     network.obj
 0003:00002964       ??_C@_0BL@DDDB@?9?9?9?5Recv?3?5Announce?5PDU?5?9?9?9?$AA@ 0048d964     network.obj
 0003:00002984       ??_C@_0CN@ODEN@?9?9?9?5Recv?3?5Tournament?5Player?5Fini@ 0048d984     network.obj
 0003:000029bc       ??_C@_0BE@PMPO@?4?2network?1pduchat?4h?$AA@ 0048d9bc     network.obj
 0003:000029d4       ??_C@_0BA@CMOL@?5?5?5chat?3?5?$CFs?3?5?$CFs?$AA@ 0048d9d4     network.obj
 0003:000029e8       ??_C@_0BH@CMGP@?9?9?9?5Send?3?5Chat?5PDU?5?9?9?9?$AA@ 0048d9e8     network.obj
 0003:00002a04       ??_C@_0P@IMPN@?5?5?5message?3?5?$CFs?$AA@ 0048da04     network.obj
 0003:00002a18       ??_C@_0BH@DOAD@?9?9?9?5Recv?3?5Chat?5PDU?5?9?9?9?$AA@ 0048da18     network.obj
 0003:00002a34       ??_C@_0N@LGKL@?5?5?5flags?3?5?$CFd?$AA@ 0048da34     network.obj
 0003:00002a44       ??_C@_0CA@GIOF@?9?9?9?5Recv?3?5Server?5Notify?5PDU?5?9?9?9?$AA@ 0048da44     network.obj
 0003:00002a6c       ??_C@_0CC@ODFN@?9?9?9?5Recv?3?5Upgrade?5Request?5PDU?5?9?9@ 0048da6c     network.obj
 0003:00002a94       ??_C@_0M@PDMI@?5?5?5data?3?5?$CFd?$AA@ 0048da94     network.obj
 0003:00002aa4       ??_C@_0BH@PBM@?9?9?9?5Recv?3?5Ping?5PDU?5?9?9?9?$AA@ 0048daa4     network.obj
 0003:00002ac0       ??_C@_0P@KNMP@?5?5?5number?3?5?$CFld?$AA@ 0048dac0     network.obj
 0003:00002ad4       ??_C@_0BO@ICKB@?9?9?9?5Recv?3?5Game?5Number?5PDU?5?9?9?9?$AA@ 0048dad4     network.obj
 0003:00002af8       ??_C@_0DC@OMAL@?5?5?5numplayers?3?5?$CFd?5slot?3?5?$CFd?5state@ 0048daf8     network.obj
 0003:00002b34       ??_C@_0M@MDLL@state_?5?$CB?$DN?50?$AA@ 0048db34     network.obj
 0003:00002b44       ??_C@_0L@BEKD@slot_?5?$DM?510?$AA@ 0048db44     network.obj
 0003:00002b54       ??_C@_0BG@LHLD@?4?2network?1pduplayer?4h?$AA@ 0048db54     network.obj
 0003:00002b70       ??_C@_0BJ@CFIG@?9?9?9?5Recv?3?5Player?5PDU?5?9?9?9?$AA@ 0048db70     network.obj
 0003:00002b90       ??_C@_0BL@POBN@?5?5?5slot?3?5?$CFd?0?5to?5pay?3?5?$CF9?42f?$AA@ 0048db90     network.obj
 0003:00002bb0       ??_C@_0BJ@BCFH@?9?9?9?5Recv?3?5All?9In?5PDU?5?9?9?9?$AA@ 0048dbb0     network.obj
 0003:00002bd0       ??_C@_0BO@HBBI@?9?9?9?5Recv?3?5Ante?5All?9In?5PDU?5?9?9?9?$AA@ 0048dbd0     network.obj
 0003:00002bf4       ??_C@_0BF@FOFC@?4?2network?1pduerror?4h?$AA@ 0048dbf4     network.obj
 0003:00002c10       ??_C@_0BP@HNKO@?9?9?9?5Send?3?5Client?5Error?5PDU?5?9?9?9?$AA@ 0048dc10     network.obj
 0003:00002c38       ??_C@_0BP@HEJO@?9?9?9?5Recv?3?5Client?5Error?5PDU?5?9?9?9?$AA@ 0048dc38     network.obj
 0003:00002c60       ??_C@_0BP@DPOH@?9?9?9?5Send?3?5Server?5Error?5PDU?5?9?9?9?$AA@ 0048dc60     network.obj
 0003:00002d1c       ?g_szAllIn@?%C:\Documents and Settings\administrator\Desktop\poker_source\client\network\pduallin.cpp418227021@@3PBDB 0048dd1c     pduallin.obj
 0003:00002d20       ?g_szAllInFmt@?%C:\Documents and Settings\administrator\Desktop\poker_source\client\network\pduallin.cpp418227021@@3PBDB 0048dd20     pduallin.obj
 0003:00002d24       ?g_szAllInNetworkFmt@?%C:\Documents and Settings\administrator\Desktop\poker_source\client\network\pduallin.cpp418227021@@3PBDB 0048dd24     pduallin.obj
 0003:00002de4       ?g_szAnnounce@?%C:\Documents and Settings\administrator\Desktop\poker_source\client\network\pduannounce.cpp593731409@@3PBDB 0048dde4     pduannounce.obj
 0003:000030d0       ??_C@_0BA@PMC@?5?5?5numcards?3?5?$CFd?$AA@ 0048e0d0     pducreditcardresponse.obj
 0003:000030e4       ??_C@_0CE@FNJI@?9?9?9?5Recv?3?5Credit?5Card?5Reply?5PDU?5@ 0048e0e4     pducreditcardresponse.obj
 0003:000032f4       ??_C@_0BM@BJIJ@?5?5?5card?5type?3?5?$CFd?0?5cards?3?5?$CFd?$AA@ 0048e2f4     pdudealcardsflex.obj
 0003:00003318       ??_C@_0CG@OINC@?9?9?9?5Recv?3?5Flexible?5Deal?5Cards?5PD@ 0048e318     pdudealcardsflex.obj
 0003:00003348       ?g_szErrFmt@?%C:\Documents and Settings\administrator\Desktop\poker_source\client\network\pduerror.cpp122868727@@3PBDB 0048e348     pduerror.obj
 0003:000035f0       ?g_szConfirmFmt@?%C:\Documents and Settings\administrator\Desktop\poker_source\client\network\pdulounge.cpp296175350@@3PBDB 0048e5f0     pdulounge.obj
 0003:000035f4       ?g_szLogoutWarning@?%C:\Documents and Settings\administrator\Desktop\poker_source\client\network\pdulounge.cpp296175350@@3PBDB 0048e5f4     pdulounge.obj
 0003:000035f8       ?g_szMotd@?%C:\Documents and Settings\administrator\Desktop\poker_source\client\network\pdulounge.cpp296175350@@3PBDB 0048e5f8     pdulounge.obj
 0003:000035fc       ?g_szFailedToLaunchTable@?%C:\Documents and Settings\administrator\Desktop\poker_source\client\network\pdulounge.cpp296175350@@3PBDB 0048e5fc     pdulounge.obj
 0003:00003600       ?g_szInvalidNameOrPassword@?%C:\Documents and Settings\administrator\Desktop\poker_source\client\network\pdulounge.cpp296175350@@3PBDB 0048e600     pdulounge.obj
 0003:00003604       ?g_szLoginFailed@?%C:\Documents and Settings\administrator\Desktop\poker_source\client\network\pdulounge.cpp296175350@@3PBDB 0048e604     pdulounge.obj
 0003:000038d0       ??_R0PAVCFileException@@@8 0048e8d0     pdulounge.obj
 0003:000038f4       ?g_szErrFmt@?%C:\Documents and Settings\administrator\Desktop\poker_source\client\network\pdunetworkerror.cpp2158311700@@3PBDB 0048e8f4     pdunetworkerror.obj
 0003:00003974       ?g_szPlayerLeft@?%C:\Documents and Settings\administrator\Desktop\poker_source\client\network\pduplayer.cpp1864910210@@3PBDB 0048e974     pduplayer.obj
 0003:00003978       ?g_szPlayerSitsOut@?%C:\Documents and Settings\administrator\Desktop\poker_source\client\network\pduplayer.cpp1864910210@@3PBDB 0048e978     pduplayer.obj
 0003:0000397c       ?g_szPlayerSitsIn@?%C:\Documents and Settings\administrator\Desktop\poker_source\client\network\pduplayer.cpp1864910210@@3PBDB 0048e97c     pduplayer.obj
 0003:00003b9c       ?g_szPlayerJoined@?%C:\Documents and Settings\administrator\Desktop\poker_source\client\network\pduplayerinfo.cpp19928352@@3PBDB 0048eb9c     pduplayerinfo.obj
 0003:00003d34       ??_C@_0BC@ENH@?5?5?5numplayers?3?5?$CFd?$AA@ 0048ed34     pduplayerinfo.obj
 0003:00003d4c       ??_C@_0BO@LMEH@?9?9?9?5Recv?3?5Player?5Info?5PDU?5?9?9?9?$AA@ 0048ed4c     pduplayerinfo.obj
 0003:00003de0       ?g_szLoginRejected@?%C:\Documents and Settings\administrator\Desktop\poker_source\client\network\pdusetup.cpp1915013330@@3PBDB 0048ede0     pdusetup.obj
 0003:00003e84       ??_C@_0CD@PBBH@?5?5?5numcards?3?5?$CFd?5message?5length?3?5@ 0048ee84     pdushowdown.obj
 0003:00003eb0       ??_C@_0BL@BAMG@?9?9?9?5Recv?3?5Showdown?5PDU?5?9?9?9?$AA@ 0048eeb0     pdushowdown.obj
 0003:000044c4       ??_C@_0CH@HKCA@?5?5?5avg?5pot?3?5?$CF9?42f?5flop?3?5?$CFd?5playe@ 0048f4c4     pduverbosetablereply.obj
 0003:000044f4       ??_C@_0CN@JADB@?9?9?9?5Recv?3?5Lounge?5Verbose?5Table?5R@ 0048f4f4     pduverbosetablereply.obj
 0003:0000452c       ?g_szErrFmt@?%C:\Documents and Settings\administrator\Desktop\poker_source\client\network\server.cpp38112656@@3PBDB 0048f52c     server.obj
 0003:00004530       ?g_szErrFmtUINT@?%C:\Documents and Settings\administrator\Desktop\poker_source\client\network\server.cpp38112656@@3PBDB 0048f530     server.obj
 0003:0000479c       ??_C@_0N@CPBD@?5?5?5data?3?5?$CFd?5?$AA@ 0048f79c     server.obj
 0003:000047ac       ??_C@_0BH@GCFA@?9?9?9?5Send?3?5Pong?5PDU?5?9?9?9?$AA@ 0048f7ac     server.obj
 0003:000047c8       ??_C@_0CA@KHPL@?9?9?9?5Send?3?5Lounge?5Logout?5PDU?5?9?9?9?$AA@ 0048f7c8     server.obj
 0003:000047f0       ??_C@_0CA@MJFC@?9?9?9?5Send?3?5Lounge?5Survey?5PDU?5?9?9?9?$AA@ 0048f7f0     server.obj
 0003:00004818       ??_C@_0O@DPLP@?5?5?5queue?3?5?$CFd?5?$AA@ 0048f818     server.obj
 0003:00004828       ??_C@_0CC@IJFK@?9?9?9?5Send?3?5Lounge?5Sit?5Down?5PDU?5?9?9@ 0048f828     server.obj
 0003:00004850       ??_C@_0O@OJHN@?5?5?5table?3?5?$CFd?5?$AA@ 0048f850     server.obj
 0003:00004860       ??_C@_0CB@HIEK@?9?9?9?5Send?3?5Lounge?5Observe?5PDU?5?9?9?9@ 0048f860     server.obj
 0003:00004888       ??_C@_0CJ@HGML@?9?9?9?5Send?3?5Lounge?5Cancel?5Sit?5Down@ 0048f888     server.obj
 0003:000048bc       ??_C@_0CI@EBHK@?9?9?9?5Send?3?5Lounge?5Logout?5Certain?5@ 0048f8bc     server.obj
 0003:000048ec       ??_C@_0CG@CJL@?9?9?9?5Send?3?5Verbose?5Table?5Query?5PD@ 0048f8ec     server.obj
 0003:0000491c       ??_C@_0CG@JD@?9?9?9?5Send?3?5Lounge?5Table?5Logout?5PD@ 0048f91c     server.obj
 0003:0000494c       ??_C@_0CI@JAC@?9?9?9?5Send?3?5Account?5Balance?5Query?5@ 0048f94c     server.obj
 0003:0000497c       ??_C@_0CE@IOCB@?9?9?9?5Send?3?5Credit?5Card?5Query?5PDU?5@ 0048f97c     server.obj
 0003:000049a8       ??_C@_09EKCI@?5?5?5card?3?5?$AA@ 0048f9a8     server.obj
 0003:000049b4       ??_C@_09POHH@?5amount?3?5?$AA@ 0048f9b4     server.obj
 0003:000049c0       ??_C@_0CI@CKFB@?9?9?9?5Send?3?5Lounge?5Buy?5In?5Request?5@ 0048f9c0     server.obj
 0003:000049f0       ??_C@_0O@DGNF@?5?5?5amount?3?5?$CFf?$AA@ 0048f9f0     server.obj
 0003:00004a00       ??_C@_0CK@BMKE@?9?9?9?5Send?3?5Lounge?5Cash?5Out?5Reques@ 0048fa00     server.obj
 0003:00004a34       ??_C@_0CL@DHPI@?9?9?9?5Send?3?5Lounge?5Transaction?5Que@ 0048fa34     server.obj
 0003:00004a68       ??_C@_0CH@OCNH@?9?9?9?5Send?3?5Table?5Observer?5Login?5P@ 0048fa68     server.obj
 0003:00004a98       ??_C@_0CI@NOCJ@?9?9?9?5Send?3?5Table?5Observer?5Logout?5@ 0048fa98     server.obj
 0003:00004ac8       ??_C@_0BO@BBDJ@?9?9?9?5Send?3?5Buy?5In?5More?5PDU?5?9?9?9?$AA@ 0048fac8     server.obj
 0003:00004aec       ??_C@_0M@DOLP@?5?5?5action?3?5?$AA@ 0048faec     server.obj
 0003:00004afc       ??_C@_08EPBK@?5raise?3?5?$AA@ 0048fafc     server.obj
 0003:00004b08       ??_C@_0BP@FJEI@?9?9?9?5Send?3?5Refuse?5Blind?5PDU?5?9?9?9?$AA@ 0048fb08     server.obj
 0003:00004b30       ?g_bEnableSSL@?%C:\Documents and Settings\administrator\Desktop\poker_source\client\network\ssl.cpp1803212550@@3HA 0048fb30     ssl.obj
 0003:00004e64       ?g_szSitOut@?%C:\Documents and Settings\administrator\Desktop\poker_source\client\base\actionimpl.cpp2921121485@@3PBDB 0048fe64     actionimpl.obj
 0003:00004e68       ?g_szFold@?%C:\Documents and Settings\administrator\Desktop\poker_source\client\base\actionimpl.cpp2921121485@@3PBDB 0048fe68     actionimpl.obj
 0003:00004e6c       ?g_szCheck@?%C:\Documents and Settings\administrator\Desktop\poker_source\client\base\actionimpl.cpp2921121485@@3PBDB 0048fe6c     actionimpl.obj
 0003:00004e70       ?g_szCall@?%C:\Documents and Settings\administrator\Desktop\poker_source\client\base\actionimpl.cpp2921121485@@3PBDB 0048fe70     actionimpl.obj
 0003:00004e74       ?g_szCallFmt@?%C:\Documents and Settings\administrator\Desktop\poker_source\client\base\actionimpl.cpp2921121485@@3PBDB 0048fe74     actionimpl.obj
 0003:00004e78       ?g_szBetFmt@?%C:\Documents and Settings\administrator\Desktop\poker_source\client\base\actionimpl.cpp2921121485@@3PBDB 0048fe78     actionimpl.obj
 0003:00004e7c       ?g_szRaiseFmt@?%C:\Documents and Settings\administrator\Desktop\poker_source\client\base\actionimpl.cpp2921121485@@3PBDB 0048fe7c     actionimpl.obj
 0003:00004e80       ?g_szPostFmt@?%C:\Documents and Settings\administrator\Desktop\poker_source\client\base\actionimpl.cpp2921121485@@3PBDB 0048fe80     actionimpl.obj
 0003:00004e84       ?g_szAnteFmt@?%C:\Documents and Settings\administrator\Desktop\poker_source\client\base\actionimpl.cpp2921121485@@3PBDB 0048fe84     actionimpl.obj
 0003:00005230       ?Width_@Cards@Base@@2HA    00490230     cards.obj
 0003:00005234       ?Height_@Cards@Base@@2HA   00490234     cards.obj
 0003:00005238       ?XOffset_@Cards@Base@@2HA  00490238     cards.obj
 0003:00005818       ?Width_@Chips@Base@@2HA    00490818     graphic_chips.obj
 0003:0000581c       ?Height_@Chips@Base@@2HA   0049081c     graphic_chips.obj
 0003:00005cc0       ??_R0?AVexception@@@8      00490cc0     jpgimage.obj
 0003:00005cdc       ??_C@_0DA@EPEG@JpgImage?3?3drawImage?3?5invalid?5ima@ 00490cdc     jpgimage.obj
 0003:00005d18       ??_C@_0EB@FMGN@JpgImage?3?3drawImage?3?5SetDIBitsTo@ 00490d18     jpgimage.obj
 0003:00005d68       ?showError@?1??drawImage@JPGImpl@Base@@QAEHPAUHDC__@@@Z@4HA 00490d68     jpgimage.obj
 0003:0000689c       ?g_szSittingOut@?%C:\Documents and Settings\administrator\Desktop\poker_source\client\base\player.cpp2763731376@@3PBDB 0049189c     player.obj
 0003:000068a0       ?g_szFolded@?%C:\Documents and Settings\administrator\Desktop\poker_source\client\base\player.cpp2763731376@@3PBDB 004918a0     player.obj
 0003:000068a4       ?g_bChipsCompartment@?%C:\Documents and Settings\administrator\Desktop\poker_source\client\base\player.cpp2763731376@@3_NA 004918a4     player.obj
 0003:000068a5       ?lg_@Player@Base@@2EA      004918a5     player.obj
 0003:000068a6       ?la_@Player@Base@@2EA      004918a6     player.obj
 0003:000068a7       ?textg_@Player@Base@@2EA   004918a7     player.obj
 0003:000068a8       ?text_backr_@Player@Base@@2EA 004918a8     player.obj
 0003:000068a9       ?text_backg_@Player@Base@@2EA 004918a9     player.obj
 0003:000068aa       ?text_backb_@Player@Base@@2EA 004918aa     player.obj
 0003:000068ab       ?edge_lightr_@Player@Base@@2EA 004918ab     player.obj
 0003:000068ac       ?edge_lightg_@Player@Base@@2EA 004918ac     player.obj
 0003:000068ad       ?edge_lightb_@Player@Base@@2EA 004918ad     player.obj
 0003:000068ae       ?edge_darkr_@Player@Base@@2EA 004918ae     player.obj
 0003:000068af       ?edge_darkg_@Player@Base@@2EA 004918af     player.obj
 0003:000068b0       ?edge_darkb_@Player@Base@@2EA 004918b0     player.obj
 0003:00007394       ?g_TournamentTest@?%C:\Documents and Settings\administrator\Desktop\poker_source\client\ui\actionbar.cpp1983117069@@3HA 00492394     actionbar.obj
 0003:00007398       ?g_bHorizontal@?%C:\Documents and Settings\administrator\Desktop\poker_source\client\ui\actionbar.cpp1983117069@@3HA 00492398     actionbar.obj
 0003:0000739c       ?g_bShowToolTips@?%C:\Documents and Settings\administrator\Desktop\poker_source\client\ui\actionbar.cpp1983117069@@3HA 0049239c     actionbar.obj
 0003:000076a8       ?g_bFlipFlop@?%C:\Documents and Settings\administrator\Desktop\poker_source\client\ui\animatewinner.cpp2447627265@@3HA 004926a8     animatewinner.obj
 0003:00007774       ?g_szPromptFmt@?%C:\Documents and Settings\administrator\Desktop\poker_source\client\ui\buyinquerydlg.cpp1663319637@@3PBDB 00492774     buyinquerydlg.obj
 0003:00007990       ?g_szClearChat@?%C:\Documents and Settings\administrator\Desktop\poker_source\client\ui\ChatView.cpp2202322531@@3PBDB 00492990     ChatView.obj
 0003:00007994       ?g_szCopyToClipboard@?%C:\Documents and Settings\administrator\Desktop\poker_source\client\ui\ChatView.cpp2202322531@@3PBDB 00492994     ChatView.obj
 0003:00007998       ?g_rgbNormal@?%C:\Documents and Settings\administrator\Desktop\poker_source\client\ui\ChatView.cpp2202322531@@3KA 00492998     ChatView.obj
 0003:0000799c       ?g_rgbCritical@?%C:\Documents and Settings\administrator\Desktop\poker_source\client\ui\ChatView.cpp2202322531@@3KA 0049299c     ChatView.obj
 0003:00007b50       ??_R0PAX@8                 00492b50     commentdialog.obj
 0003:00007b60       ??_R0PAVCObject@@@8        00492b60     commentdialog.obj
 0003:00007b80       ??_R0PAVCException@@@8     00492b80     commentdialog.obj
 0003:00007bf4       ?g_szAppName@?%C:\Documents and Settings\administrator\Desktop\poker_source\client\ui\global.cpp208426049@@3PBDB 00492bf4     global.obj
 0003:00007bf8       ?g_szFontFace@?%C:\Documents and Settings\administrator\Desktop\poker_source\client\ui\global.cpp208426049@@3PBDB 00492bf8     global.obj
 0003:00007bfc       ?g_szNotEnoughMemory@?%C:\Documents and Settings\administrator\Desktop\poker_source\client\ui\global.cpp208426049@@3PBDB 00492bfc     global.obj
 0003:00007f14       ?g_szConfirmQuit@?%C:\Documents and Settings\administrator\Desktop\poker_source\client\ui\mainwnd.cpp36743145@@3PBDB 00492f14     mainwnd.obj
 0003:00007f18       ?g_szConfirmLogout@?%C:\Documents and Settings\administrator\Desktop\poker_source\client\ui\mainwnd.cpp36743145@@3PBDB 00492f18     mainwnd.obj
 0003:000082a8       ?g_szAppKey@?%C:\Documents and Settings\administrator\Desktop\poker_source\client\ui\registry.cpp2277120870@@3PBDB 004932a8     registry.obj
 0003:000088dc       ?g_szFilter@?%C:\Documents and Settings\administrator\Desktop\poker_source\client\ui\tableview.cpp158683681@@3PBDB 004938dc     tableview.obj
 0003:000088e0       ?g_szSmallBlind@?%C:\Documents and Settings\administrator\Desktop\poker_source\client\ui\tableview.cpp158683681@@3PBDB 004938e0     tableview.obj
 0003:000088e4       ?g_szBigBlind@?%C:\Documents and Settings\administrator\Desktop\poker_source\client\ui\tableview.cpp158683681@@3PBDB 004938e4     tableview.obj
 0003:000088e8       ?g_szLeaveTable@?%C:\Documents and Settings\administrator\Desktop\poker_source\client\ui\tableview.cpp158683681@@3PBDB 004938e8     tableview.obj
 0003:000088ec       ?g_szCancelLogout@?%C:\Documents and Settings\administrator\Desktop\poker_source\client\ui\tableview.cpp158683681@@3PBDB 004938ec     tableview.obj
 0003:0000914c       ??_C@_0BH@IFGD@dollars?5?$DM?$DN?5Max_Dollars?$AA@ 0049414c     chips.obj
 0003:00009168       ??_C@_0CF@GFOG@?4?4?2lib?2common?2include?2common?1chi@ 00494168     chips.obj
 0003:00009194       ??_C@_0BD@BBFE@cents?5?$DM?$DN?5Max_Cents?$AA@ 00494194     chips.obj
 0003:00009200       ?g_szWndClass@?%C:\Documents and Settings\administrator\Desktop\poker_source\client\shell\Poker.cpp217665238@@3PBDB 00494200     Poker.obj
 0003:00009204       ?g_szAppName@?%C:\Documents and Settings\administrator\Desktop\poker_source\client\shell\Poker.cpp217665238@@3PBDB 00494204     Poker.obj
 0003:00009208       ?g_szNotEnoughMemory@?%C:\Documents and Settings\administrator\Desktop\poker_source\client\shell\Poker.cpp217665238@@3PBDB 00494208     Poker.obj
 0003:0000920c       ?g_szInitSocketFailed@?%C:\Documents and Settings\administrator\Desktop\poker_source\client\shell\Poker.cpp217665238@@3PBDB 0049420c     Poker.obj
 0003:00009210       ?g_szCantLoadGameDll@?%C:\Documents and Settings\administrator\Desktop\poker_source\client\shell\Poker.cpp217665238@@3PBDB 00494210     Poker.obj
 0003:00009214       ?g_szInvalidDll@?%C:\Documents and Settings\administrator\Desktop\poker_source\client\shell\Poker.cpp217665238@@3PBDB 00494214     Poker.obj
 0003:00009218       ?g_szCantInitSSL@?%C:\Documents and Settings\administrator\Desktop\poker_source\client\shell\Poker.cpp217665238@@3PBDB 00494218     Poker.obj
 0003:00009480       ?GUID_ATLVer30@ATL@@3U_GUID@@A 00494480     mfcs42d:stdafx.obj
 0003:00009490       ??_R0?AVtype_info@@@8      00494490     msvcrtd:ti_inst.obj
 0003:000094b0       ___defaultmatherr          004944b0     msvcrtd:merr.obj
 0003:00009670       ?gbInAnte@@3_NA            00494670     community.obj
 0003:00009680       ?BmpBuf_@House@@0VCBitmap@@A 00494680     house.obj
 0003:0000968c       ?g_pState@?%C:\Documents and Settings\administrator\Desktop\poker_source\client\tem\statebet.cpp1793617049@@3PAVStateBet@@A 0049468c     statebet.obj
 0003:000096a0       ?g_pState@?%C:\Documents and Settings\administrator\Desktop\poker_source\client\tem\statepromptpostblind.cpp290759316@@3PAVStatePromptPostBlind@@A 004946a0     statepromptpostblind.obj
 0003:000096a8       ?g_WriteBuffer@Network@@3PADA 004946a8     network.obj
 0003:000196a8       ?AllocBalance_@PDUHeader@Network@@2KA 004a46a8     network.obj
 0003:0001ca84       ?Password_@Server@Network@@1VCString@@A 004a7a84     server.obj
 0003:0001ca88       ?Username_@Server@Network@@1VCString@@A 004a7a88     server.obj
 0003:0001ca8c       ?ErrFmt_@Server@Network@@2VCString@@A 004a7a8c     server.obj
 0003:0001ca90       ?ErrCode_@Server@Network@@2HA 004a7a90     server.obj
 0003:0001ca98       ?ThreadInfo_@Server@Network@@1UThreadInfo@2@A 004a7a98     server.obj
 0003:0001cab0       ?g_Socket2SSL@?%C:\Documents and Settings\administrator\Desktop\poker_source\client\network\ssl.cpp1803212550@@3PAUSocket2SSL@1@A 004a7ab0     ssl.obj
 0003:0001cac0       ?g_pCtx@?%C:\Documents and Settings\administrator\Desktop\poker_source\client\network\ssl.cpp1803212550@@3PAUssl_ctx_st@@A 004a7ac0     ssl.obj
 0003:0001cac4       ?g_pMeth@?%C:\Documents and Settings\administrator\Desktop\poker_source\client\network\ssl.cpp1803212550@@3PAUssl_method_st@@A 004a7ac4     ssl.obj
 0003:0001cad0       ?g_Rects@?%C:\Documents and Settings\administrator\Desktop\poker_source\client\base\cards.cpp180929770@@3V?$vector@VCRect@@V?$allocator@VCRect@@@std@@@std@@A 004a7ad0     cards.obj
 0003:0001cae0       ?g_Cards@?%C:\Documents and Settings\administrator\Desktop\poker_source\client\base\cards.cpp180929770@@3VCards@Base@@A 004a7ae0     cards.obj
 0003:0001cb2c       ?YOffset_@Cards@Base@@2HA  004a7b2c     cards.obj
 0003:0001cb34       ?OpenCardWidth_@Cards@Base@@2HA 004a7b34     cards.obj
 0003:0001cb38       ?OpenCardHeight_@Cards@Base@@2HA 004a7b38     cards.obj
 0003:0001cb3c       ?BacksideCardWidth_@Cards@Base@@2HA 004a7b3c     cards.obj
 0003:0001cb40       ?BacksideCardHeight_@Cards@Base@@2HA 004a7b40     cards.obj
 0003:0001cb60       ?g_GameLogic@?%C:\Documents and Settings\administrator\Desktop\poker_source\client\base\gamelogic.cpp2833414629@@3VGameLogic@Base@@A 004a7b60     gamelogic.obj
 0003:0001cba8       ?g_Chips@?%C:\Documents and Settings\administrator\Desktop\poker_source\client\base\graphic_chips.cpp135407672@@3VChips@Base@@A 004a7ba8     graphic_chips.obj
 0003:0001cc50       ?g_TokenHandlers@Base@@3PAUTokenHandler@1@A 004a7c50     layout.obj
 0003:0001cd90       ?DefaultSize_@Player@Base@@1VCSize@@A 004a7d90     player.obj
 0003:0001cd98       ?lr_@Player@Base@@2EA      004a7d98     player.obj
 0003:0001cd99       ?lb_@Player@Base@@2EA      004a7d99     player.obj
 0003:0001cd9a       ?textr_@Player@Base@@2EA   004a7d9a     player.obj
 0003:0001cd9b       ?textb_@Player@Base@@2EA   004a7d9b     player.obj
 0003:0001cd9c       ?bump_text_@Player@Base@@2HA 004a7d9c     player.obj
 0003:0001cfd8       ?g_bSpreadLimit@?%C:\Documents and Settings\administrator\Desktop\poker_source\client\ui\actionbar.cpp1983117069@@3HA 004a7fd8     actionbar.obj
 0003:0001cfdc       ?pInst_@CActionBar@@2PAV1@A 004a7fdc     actionbar.obj
 0003:0001d058       ?bmp_@CActionButton@@0VTransparentBitmap@Base@@A 004a8058     ActionButton.obj
 0003:0001d070       ?fontHilite_@CActionButton@@0VCFont@@A 004a8070     ActionButton.obj
 0003:0001d080       ?brHilite_@CActionButton@@0VCBrush@@A 004a8080     ActionButton.obj
 0003:0001d098       ?g_Bmp@?%C:\Documents and Settings\administrator\Desktop\poker_source\client\ui\animatewinner.cpp2447627265@@3VTransparentBitmap@Base@@A 004a8098     animatewinner.obj
 0003:0001d0bc       ?g_pWnd@?%C:\Documents and Settings\administrator\Desktop\poker_source\client\ui\animatewinner.cpp2447627265@@3PAVCWnd@@A 004a80bc     animatewinner.obj
 0003:0001d0c0       ?g_Timer@?%C:\Documents and Settings\administrator\Desktop\poker_source\client\ui\animatewinner.cpp2447627265@@3IA 004a80c0     animatewinner.obj
 0003:0001d0c4       ?g_dwAnimTime@?%C:\Documents and Settings\administrator\Desktop\poker_source\client\ui\animatewinner.cpp2447627265@@3KA 004a80c4     animatewinner.obj
 0003:0001d0c8       ?g_dwDT@?%C:\Documents and Settings\administrator\Desktop\poker_source\client\ui\animatewinner.cpp2447627265@@3KA 004a80c8     animatewinner.obj
 0003:0001d0e0       ?g_rgbUser@?%C:\Documents and Settings\administrator\Desktop\poker_source\client\ui\ChatView.cpp2202322531@@3KA 004a80e0     ChatView.obj
 0003:0001d0e4       ?pInst_@CChatView@@0PAV1@A 004a80e4     ChatView.obj
 0003:0001d0f8       ?bmpCheck_@CCheckButton@@0VTransparentBitmap@Base@@A 004a80f8     checkbutton.obj
 0003:0001d118       ?g_Global@@3VGlobal@@A     004a8118     global.obj
 0003:0001d154       ?iCharHeight_@Global@@0HA  004a8154     global.obj
 0003:0001d158       ?CloseConnection_@Global@@0_NA 004a8158     global.obj
 0003:0001d16c       ?IpAddress_@CLoginDlg@@2KA 004a816c     logindlg.obj
 0003:0001d170       ?Port_@CLoginDlg@@2GA      004a8170     logindlg.obj
 0003:0001d184       ?pInstance_@CMainWnd@@0PAV1@A 004a8184     mainwnd.obj
 0003:0001d420       ?g_Reg@?%C:\Documents and Settings\administrator\Desktop\poker_source\client\ui\registry.cpp2277120870@@3VRegistry@Base@@A 004a8420     registry.obj
 0003:0001d434       ?g_InstanceNumber@?%C:\Documents and Settings\administrator\Desktop\poker_source\client\ui\registry.cpp2277120870@@3HA 004a8434     registry.obj
 0003:0001d43c       ?g_SoundManager@?%C:\Documents and Settings\administrator\Desktop\poker_source\client\ui\soundmanager.cpp148721476@@3VSoundManager@@A 004a843c     soundmanager.obj
 0003:0001d440       ?g_SoundRes@?%C:\Documents and Settings\administrator\Desktop\poker_source\client\ui\soundmanager.cpp148721476@@3PAPBDA 004a8440     soundmanager.obj
 0003:0001d480       ?pInst_@SoundManager@@0PAV1@A 004a8480     soundmanager.obj
 0003:0001d494       ?c_pSplashWnd@CSplashWnd@@2PAV1@A 004a8494     splashwnd.obj
 0003:0001d498       ?c_bShowSplashWnd@CSplashWnd@@1HA 004a8498     splashwnd.obj
 0003:0001d6a8       ?g_BtnFont@?%C:\Documents and Settings\administrator\Desktop\poker_source\client\ui\tableview.cpp158683681@@3VCFont@@A 004a86a8     tableview.obj
 0003:0001d6b0       ?g_DealerButton@?%C:\Documents and Settings\administrator\Desktop\poker_source\client\ui\tableview.cpp158683681@@3VTransparentBitmap@Base@@A 004a86b0     tableview.obj
 0003:0001d6c8       ?pInstance_@CTableView@@0PAV1@A 004a86c8     tableview.obj
 0003:0001d758       ?g_App@?%C:\Documents and Settings\administrator\Desktop\poker_source\client\shell\Poker.cpp217665238@@3VCPokerApp@@A 004a8758     Poker.obj
 0003:0001d820       ?g_hDll@?%C:\Documents and Settings\administrator\Desktop\poker_source\client\shell\Poker.cpp217665238@@3PAUHINSTANCE__@@A 004a8820     Poker.obj
 0003:0001d824       ?g_pGameImpl@?%C:\Documents and Settings\administrator\Desktop\poker_source\client\shell\Poker.cpp217665238@@3PAUIGameImplementation@@A 004a8824     Poker.obj
 0003:0001d828       ?g_pGameDisp@?%C:\Documents and Settings\administrator\Desktop\poker_source\client\shell\Poker.cpp217665238@@3PAUIGameDispatch@@A 004a8828     Poker.obj
 0003:0001d82c       ?g_LoungeHWND@?%C:\Documents and Settings\administrator\Desktop\poker_source\client\shell\Poker.cpp217665238@@3PAUHWND__@@A 004a882c     Poker.obj
 0003:0001d85c       __afxForceEXCLUDE          004a885c     mfcs42d:nolib.obj
 0003:0001d860       ?ATL_CREATE_OBJECT@CComApartment@ATL@@2IA 004a8860     mfcs42d:stdafx.obj
 0003:0001d868       ?m_libid@CComModule@ATL@@2U_GUID@@A 004a8868     mfcs42d:stdafx.obj
 0003:0001d878       ?_pModule@ATL@@3PAVCComModule@1@A 004a8878     mfcs42d:stdafx.obj
 0003:0001d87c       __afxForceSTDAFX           004a887c     mfcs42d:stdafx.obj
 0003:0001d880       __dowildcard               004a8880     msvcrtd:wildcard.obj
 0003:0001d884       __newmode                  004a8884     msvcrtd:_newmode.obj
 0003:0001d888       __commode                  004a8888     msvcrtd:xncommod.obj
 0003:0001d88c       __fmode                    004a888c     msvcrtd:xtxtmode.obj
 0003:0001d890       ?_afxInitAppState@@3DA     004a8890     mfcs42d:appmodul.obj
 0003:0001d894       __adjust_fdiv              004a8894     <common>
 0003:0001d8a0       ___onexitend               004a88a0     <common>
 0003:0001d8b0       ___onexitbegin             004a88b0     <common>
 0004:00000000       __IMPORT_DESCRIPTOR_MFC42D 004a9000     mfc42d:MFC42D.DLL
 0004:00000014       __IMPORT_DESCRIPTOR_MSVCRTD 004a9014     msvcrtd:MSVCRTD.dll
 0004:00000028       __IMPORT_DESCRIPTOR_KERNEL32 004a9028     kernel32:KERNEL32.dll
 0004:0000003c       __IMPORT_DESCRIPTOR_USER32 004a903c     user32:USER32.dll
 0004:00000050       __IMPORT_DESCRIPTOR_GDI32  004a9050     gdi32:GDI32.dll
 0004:00000064       __IMPORT_DESCRIPTOR_ADVAPI32 004a9064     advapi32:ADVAPI32.dll
 0004:00000078       __IMPORT_DESCRIPTOR_SHELL32 004a9078     shell32:SHELL32.dll
 0004:0000008c       __IMPORT_DESCRIPTOR_MSVCP60D 004a908c     msvcprtd:MSVCP60D.dll
 0004:000000a0       __IMPORT_DESCRIPTOR_MSVCIRTD 004a90a0     msvcirtd:MSVCIRTD.dll
 0004:000000b4       __IMPORT_DESCRIPTOR_SSLEAY32 004a90b4     ssleay32:SSLEAY32.dll
 0004:000000c8       __IMPORT_DESCRIPTOR_LIBEAY32 004a90c8     libeay32:LIBEAY32.dll
 0004:000000dc       __IMPORT_DESCRIPTOR_jpglib 004a90dc     jpglib:jpglib.dll
 0004:000000f0       __IMPORT_DESCRIPTOR_WINMM  004a90f0     winmm:WINMM.dll
 0004:00000104       __IMPORT_DESCRIPTOR_MFCN42D 004a9104     mfcn42d:MFCN42D.DLL
 0004:00000118       __IMPORT_DESCRIPTOR_WSOCK32 004a9118     wsock32:WSOCK32.dll
 0004:0000012c       __NULL_IMPORT_DESCRIPTOR   004a912c     mfc42d:MFC42D.DLL
 0004:00000fa4       __imp__RegEnumKeyExA@32    004a9fa4     advapi32:ADVAPI32.dll
 0004:00000fa8       __imp__RegCreateKeyA@12    004a9fa8     advapi32:ADVAPI32.dll
 0004:00000fac       __imp__RegOpenKeyExA@20    004a9fac     advapi32:ADVAPI32.dll
 0004:00000fb0       __imp__RegQueryValueExA@24 004a9fb0     advapi32:ADVAPI32.dll
 0004:00000fb4       __imp__RegSetValueExA@24   004a9fb4     advapi32:ADVAPI32.dll
 0004:00000fb8       __imp__RegCloseKey@4       004a9fb8     advapi32:ADVAPI32.dll
 0004:00000fbc       \177ADVAPI32_NULL_THUNK_DATA 004a9fbc     advapi32:ADVAPI32.dll
 0004:00000fec       __imp__GetDeviceCaps@8     004a9fec     gdi32:GDI32.dll
 0004:00000ff0       __imp__SelectObject@8      004a9ff0     gdi32:GDI32.dll
 0004:00000ff4       __imp__CreateCompatibleBitmap@12 004a9ff4     gdi32:GDI32.dll
 0004:00000ff8       __imp__GetDIBits@28        004a9ff8     gdi32:GDI32.dll
 0004:00000ffc       __imp__GetStockObject@4    004a9ffc     gdi32:GDI32.dll
 0004:00001000       __imp__SetDIBitsToDevice@48 004aa000     gdi32:GDI32.dll
 0004:00001004       __imp__CreateCompatibleDC@4 004aa004     gdi32:GDI32.dll
 0004:00001008       __imp__DeleteObject@4      004aa008     gdi32:GDI32.dll
 0004:0000100c       __imp__BitBlt@36           004aa00c     gdi32:GDI32.dll
 0004:00001010       __imp__DeleteDC@4          004aa010     gdi32:GDI32.dll
 0004:00001014       __imp__CreateDIBSection@24 004aa014     gdi32:GDI32.dll
 0004:00001018       __imp__SetDIBits@28        004aa018     gdi32:GDI32.dll
 0004:0000101c       \177GDI32_NULL_THUNK_DATA  004aa01c     gdi32:GDI32.dll
 0004:00001050       __imp__lstrlenA@4          004aa050     kernel32:KERNEL32.dll
 0004:00001054       __imp__LocalFree@4         004aa054     kernel32:KERNEL32.dll
 0004:00001058       __imp__FormatMessageA@28   004aa058     kernel32:KERNEL32.dll
 0004:0000105c       __imp__Sleep@4             004aa05c     kernel32:KERNEL32.dll
 0004:00001060       __imp__CreateEventA@16     004aa060     kernel32:KERNEL32.dll
 0004:00001064       __imp__SetEvent@4          004aa064     kernel32:KERNEL32.dll
 0004:00001068       __imp__GetLastError@0      004aa068     kernel32:KERNEL32.dll
 0004:0000106c       __imp__ResetEvent@4        004aa06c     kernel32:KERNEL32.dll
 0004:00001070       __imp__CloseHandle@4       004aa070     kernel32:KERNEL32.dll
 0004:00001074       __imp__PulseEvent@4        004aa074     kernel32:KERNEL32.dll
 0004:00001078       __imp__WaitForSingleObject@8 004aa078     kernel32:KERNEL32.dll
 0004:0000107c       __imp__ReleaseMutex@4      004aa07c     kernel32:KERNEL32.dll
 0004:00001080       __imp__CreateMutexA@12     004aa080     kernel32:KERNEL32.dll
 0004:00001084       __imp__GlobalLock@4        004aa084     kernel32:KERNEL32.dll
 0004:00001088       __imp__GlobalAlloc@8       004aa088     kernel32:KERNEL32.dll
 0004:0000108c       __imp__GlobalUnlock@4      004aa08c     kernel32:KERNEL32.dll
 0004:00001090       __imp__SearchPathA@24      004aa090     kernel32:KERNEL32.dll
 0004:00001094       __imp__GetProfileIntA@12   004aa094     kernel32:KERNEL32.dll
 0004:00001098       __imp__FreeLibrary@4       004aa098     kernel32:KERNEL32.dll
 0004:0000109c       __imp__LoadLibraryA@4      004aa09c     kernel32:KERNEL32.dll
 0004:000010a0       __imp__GlobalDeleteAtom@4  004aa0a0     kernel32:KERNEL32.dll
 0004:000010a4       __imp__GetProcAddress@8    004aa0a4     kernel32:KERNEL32.dll
 0004:000010a8       __imp__GetModuleHandleA@4  004aa0a8     kernel32:KERNEL32.dll
 0004:000010ac       __imp__GetStartupInfoA@4   004aa0ac     kernel32:KERNEL32.dll
 0004:000010b0       __imp__GlobalGetAtomNameA@12 004aa0b0     kernel32:KERNEL32.dll
 0004:000010b4       __imp__OutputDebugStringA@4 004aa0b4     kernel32:KERNEL32.dll
 0004:000010b8       __imp__GetTempFileNameA@16 004aa0b8     kernel32:KERNEL32.dll
 0004:000010bc       \177KERNEL32_NULL_THUNK_DATA 004aa0bc     kernel32:KERNEL32.dll
 0004:000010fc       __imp__ERR_error_string    004aa0fc     libeay32:LIBEAY32.dll
 0004:00001100       \177LIBEAY32_NULL_THUNK_DATA 004aa100     libeay32:LIBEAY32.dll
 0004:0000112c       __imp_??0CPoint@@QAE@UtagSIZE@@@Z 004aa12c     mfc42d:MFC42D.DLL
 0004:00001130       __imp_??GCPoint@@QBE?AVCSize@@UtagPOINT@@@Z 004aa130     mfc42d:MFC42D.DLL
 0004:00001134       __imp_?Invalidate@CWnd@@QAEXH@Z 004aa134     mfc42d:MFC42D.DLL
 0004:00001138       __imp_??3@YAXPAXPBDH@Z     004aa138     mfc42d:MFC42D.DLL
 0004:0000113c       __imp_?AfxMessageBox@@YGHPBDII@Z 004aa13c     mfc42d:MFC42D.DLL
 0004:00001140       __imp_?AfxGetThread@@YGPAVCWinThread@@XZ 004aa140     mfc42d:MFC42D.DLL
 0004:00001144       __imp_??2@YAPAXIPBDH@Z     004aa144     mfc42d:MFC42D.DLL
 0004:00001148       __imp_?SetAt@CString@@QAEXHD@Z 004aa148     mfc42d:MFC42D.DLL
 0004:0000114c       __imp_??ACString@@QBEDH@Z  004aa14c     mfc42d:MFC42D.DLL
 0004:00001150       __imp_?GetLength@CString@@QBEHXZ 004aa150     mfc42d:MFC42D.DLL
 0004:00001154       __imp_??4CString@@QAEABV0@ABV0@@Z 004aa154     mfc42d:MFC42D.DLL
 0004:00001158       __imp_?IsEmpty@CString@@QBEHXZ 004aa158     mfc42d:MFC42D.DLL
 0004:0000115c       __imp_?ReleaseDC@CWnd@@QAEHPAVCDC@@@Z 004aa15c     mfc42d:MFC42D.DLL
 0004:00001160       __imp_?GetDC@CWnd@@QAEPAVCDC@@XZ 004aa160     mfc42d:MFC42D.DLL
 0004:00001164       __imp_?AfxGetMainWnd@@YGPAVCWnd@@XZ 004aa164     mfc42d:MFC42D.DLL
 0004:00001168       __imp_?IsKindOf@CObject@@QBEHPBUCRuntimeClass@@@Z 004aa168     mfc42d:MFC42D.DLL
 0004:0000116c       __imp_?classCFileException@CFileException@@2UCRuntimeClass@@B 004aa16c     mfc42d:MFC42D.DLL
 0004:00001170       __imp_??1CFile@@UAE@XZ     004aa170     mfc42d:MFC42D.DLL
 0004:00001174       __imp_?Close@CFile@@UAEXXZ 004aa174     mfc42d:MFC42D.DLL
 0004:00001178       __imp_?Write@CFile@@UAEXPBXI@Z 004aa178     mfc42d:MFC42D.DLL
 0004:0000117c       __imp_??0CFile@@QAE@PBDI@Z 004aa17c     mfc42d:MFC42D.DLL
 0004:00001180       __imp_??0AFX_EXCEPTION_LINK@@QAE@XZ 004aa180     mfc42d:MFC42D.DLL
 0004:00001184       __imp_??0CFile@@QAE@XZ     004aa184     mfc42d:MFC42D.DLL
 0004:00001188       __imp_??H@YG?AVCString@@ABV0@PBD@Z 004aa188     mfc42d:MFC42D.DLL
 0004:0000118c       __imp_?AfxTryCleanup@@YGXXZ 004aa18c     mfc42d:MFC42D.DLL
 0004:00001190       __imp_??4CString@@QAEABV0@PBD@Z 004aa190     mfc42d:MFC42D.DLL
 0004:00001194       __imp_?DoModal@CDialog@@UAEHXZ 004aa194     mfc42d:MFC42D.DLL
 0004:00001198       __imp_??1CDialog@@UAE@XZ   004aa198     mfc42d:MFC42D.DLL
 0004:0000119c       __imp_??YCString@@QAEABV0@PBD@Z 004aa19c     mfc42d:MFC42D.DLL
 0004:000011a0       __imp_?AfxBeginThread@@YGPAVCWinThread@@P6AIPAX@Z0HIKPAU_SECURITY_ATTRIBUTES@@@Z 004aa1a0     mfc42d:MFC42D.DLL
 0004:000011a4       __imp_?AfxTrace@@YAXPBDZZ  004aa1a4     mfc42d:MFC42D.DLL
 0004:000011a8       __imp_??8@YG_NABVCString@@PBD@Z 004aa1a8     mfc42d:MFC42D.DLL
 0004:000011ac       __imp_?SetTimer@CWnd@@QAEIIIP6GXPAUHWND__@@IIK@Z@Z 004aa1ac     mfc42d:MFC42D.DLL
 0004:000011b0       __imp_?LoadBitmapA@CBitmap@@QAEHI@Z 004aa1b0     mfc42d:MFC42D.DLL
 0004:000011b4       __imp_?CreateBitmapIndirect@CBitmap@@QAEHPAUtagBITMAP@@@Z 004aa1b4     mfc42d:MFC42D.DLL
 0004:000011b8       __imp_?CreateCompatibleBitmap@CBitmap@@QAEHPAVCDC@@HH@Z 004aa1b8     mfc42d:MFC42D.DLL
 0004:000011bc       __imp_??H@YG?AVCString@@PBDABV0@@Z 004aa1bc     mfc42d:MFC42D.DLL
 0004:000011c0       __imp_?TextOutA@CDC@@QAEHHHABVCString@@@Z 004aa1c0     mfc42d:MFC42D.DLL
 0004:000011c4       __imp_??1CPen@@UAE@XZ      004aa1c4     mfc42d:MFC42D.DLL
 0004:000011c8       __imp_?LineTo@CDC@@QAEHHH@Z 004aa1c8     mfc42d:MFC42D.DLL
 0004:000011cc       __imp_?MoveTo@CDC@@QAE?AVCPoint@@HH@Z 004aa1cc     mfc42d:MFC42D.DLL
 0004:000011d0       __imp_?SelectObject@CDC@@QAEPAVCPen@@PAV2@@Z 004aa1d0     mfc42d:MFC42D.DLL
 0004:000011d4       __imp_??0CPen@@QAE@HHK@Z   004aa1d4     mfc42d:MFC42D.DLL
 0004:000011d8       __imp_??1CWindowDC@@UAE@XZ 004aa1d8     mfc42d:MFC42D.DLL
 0004:000011dc       __imp_??0CWindowDC@@QAE@PAVCWnd@@@Z 004aa1dc     mfc42d:MFC42D.DLL
 0004:000011e0       __imp_?PatBlt@CDC@@QAEHHHHHK@Z 004aa1e0     mfc42d:MFC42D.DLL
 0004:000011e4       __imp_??1CWaitCursor@@QAE@XZ 004aa1e4     mfc42d:MFC42D.DLL
 0004:000011e8       __imp_??0CWaitCursor@@QAE@XZ 004aa1e8     mfc42d:MFC42D.DLL
 0004:000011ec       __imp_?FromHandle@CDC@@SGPAV1@PAUHDC__@@@Z 004aa1ec     mfc42d:MFC42D.DLL
 0004:000011f0       __imp_?StretchBlt@CDC@@QAEHHHHHPAV1@HHHHK@Z 004aa1f0     mfc42d:MFC42D.DLL
 0004:000011f4       __imp_?Remove@CFile@@SGXPBD@Z 004aa1f4     mfc42d:MFC42D.DLL
 0004:000011f8       __imp_?GetWindowPlacement@CWnd@@QBEHPAUtagWINDOWPLACEMENT@@@Z 004aa1f8     mfc42d:MFC42D.DLL
 0004:000011fc       __imp_?GetActiveView@CFrameWnd@@QBEPAVCView@@XZ 004aa1fc     mfc42d:MFC42D.DLL
 0004:00001200       __imp_?Left@CString@@QBE?AV1@H@Z 004aa200     mfc42d:MFC42D.DLL
 0004:00001204       __imp_??9@YG_NABVCString@@PBD@Z 004aa204     mfc42d:MFC42D.DLL
 0004:00001208       __imp_?InflateRect@CRect@@QAEXHH@Z 004aa208     mfc42d:MFC42D.DLL
 0004:0000120c       __imp_??0CPoint@@QAE@XZ    004aa20c     mfc42d:MFC42D.DLL
 0004:00001210       __imp_?NormalizeRect@CRect@@QAEXXZ 004aa210     mfc42d:MFC42D.DLL
 0004:00001214       __imp_??0CSize@@QAE@XZ     004aa214     mfc42d:MFC42D.DLL
 0004:00001218       __imp_??3CObject@@SGXPAX@Z 004aa218     mfc42d:MFC42D.DLL
 0004:0000121c       __imp_?ShowWindow@CWnd@@QAEHH@Z 004aa21c     mfc42d:MFC42D.DLL
 0004:00001220       __imp_?Create@CDialog@@QAEHIPAVCWnd@@@Z 004aa220     mfc42d:MFC42D.DLL
 0004:00001224       __imp_??2CObject@@SGPAXI@Z 004aa224     mfc42d:MFC42D.DLL
 0004:00001228       __imp_?SetFocus@CWnd@@QAEPAV1@XZ 004aa228     mfc42d:MFC42D.DLL
 0004:0000122c       __imp_?GetFocus@CWnd@@SGPAV1@XZ 004aa22c     mfc42d:MFC42D.DLL
 0004:00001230       __imp_?CenterWindow@CWnd@@QAEXPAV1@@Z 004aa230     mfc42d:MFC42D.DLL
 0004:00001234       __imp_?CompareNoCase@CString@@QBEHPBD@Z 004aa234     mfc42d:MFC42D.DLL
 0004:00001238       __imp_?Right@CString@@QBE?AV1@H@Z 004aa238     mfc42d:MFC42D.DLL
 0004:0000123c       __imp_??BCBitmap@@QBEPAUHBITMAP__@@XZ 004aa23c     mfc42d:MFC42D.DLL
 0004:00001240       __imp_?FillSolidRect@CDC@@QAEXHHHHK@Z 004aa240     mfc42d:MFC42D.DLL
 0004:00001244       __imp_?Read@CFile@@UAEIPAXI@Z 004aa244     mfc42d:MFC42D.DLL
 0004:00001248       __imp_?Open@CFile@@UAEHPBDIPAVCFileException@@@Z 004aa248     mfc42d:MFC42D.DLL
 0004:0000124c       __imp_?PreInitDialog@CDialog@@MAEXXZ 004aa24c     mfc42d:MFC42D.DLL
 0004:00001250       __imp_?OnCancel@CDialog@@MAEXXZ 004aa250     mfc42d:MFC42D.DLL
 0004:00001254       __imp_?OnOK@CDialog@@MAEXXZ 004aa254     mfc42d:MFC42D.DLL
 0004:00001258       __imp_?OnSetFont@CDialog@@UAEXPAVCFont@@@Z 004aa258     mfc42d:MFC42D.DLL
 0004:0000125c       __imp_?OnInitDialog@CDialog@@UAEHXZ 004aa25c     mfc42d:MFC42D.DLL
 0004:00001260       __imp_?SetOccDialogInfo@CDialog@@MAEHPAU_AFX_OCC_DIALOG_INFO@@@Z 004aa260     mfc42d:MFC42D.DLL
 0004:00001264       __imp_?IsFrameWnd@CWnd@@UBEHXZ 004aa264     mfc42d:MFC42D.DLL
 0004:00001268       __imp_?CheckAutoCenter@CDialog@@UAEHXZ 004aa268     mfc42d:MFC42D.DLL
 0004:0000126c       __imp_?OnChildNotify@CWnd@@MAEHIIJPAJ@Z 004aa26c     mfc42d:MFC42D.DLL
 0004:00001270       __imp_?PostNcDestroy@CWnd@@MAEXXZ 004aa270     mfc42d:MFC42D.DLL
 0004:00001274       __imp_?DefWindowProcA@CWnd@@MAEJIIJ@Z 004aa274     mfc42d:MFC42D.DLL
 0004:00001278       __imp_?OnWndMsg@CWnd@@MAEHIIJPAJ@Z 004aa278     mfc42d:MFC42D.DLL
 0004:0000127c       __imp_?WindowProc@CWnd@@MAEJIIJ@Z 004aa27c     mfc42d:MFC42D.DLL
 0004:00001280       __imp_?OnAmbientProperty@CWnd@@UAEHPAVCOleControlSite@@JPAUtagVARIANT@@@Z 004aa280     mfc42d:MFC42D.DLL
 0004:00001284       __imp_?PreTranslateMessage@CDialog@@UAEHPAUtagMSG@@@Z 004aa284     mfc42d:MFC42D.DLL
 0004:00001288       __imp_?EndModalState@CWnd@@UAEXXZ 004aa288     mfc42d:MFC42D.DLL
 0004:0000128c       __imp_?BeginModalState@CWnd@@UAEXXZ 004aa28c     mfc42d:MFC42D.DLL
 0004:00001290       __imp_?GetSuperWndProcAddr@CWnd@@MAEPAP6GJPAUHWND__@@IIJ@ZXZ 004aa290     mfc42d:MFC42D.DLL
 0004:00001294       __imp_?OnNotify@CWnd@@MAEHIJPAJ@Z 004aa294     mfc42d:MFC42D.DLL
 0004:00001298       __imp_?OnCommand@CWnd@@MAEHIJ@Z 004aa298     mfc42d:MFC42D.DLL
 0004:0000129c       __imp_?EndModalLoop@CWnd@@UAEXH@Z 004aa29c     mfc42d:MFC42D.DLL
 0004:000012a0       __imp_?ContinueModal@CWnd@@UAEHXZ 004aa2a0     mfc42d:MFC42D.DLL
 0004:000012a4       __imp_?WinHelpA@CWnd@@UAEXKI@Z 004aa2a4     mfc42d:MFC42D.DLL
 0004:000012a8       __imp_?GetScrollBarCtrl@CWnd@@UBEPAVCScrollBar@@H@Z 004aa2a8     mfc42d:MFC42D.DLL
 0004:000012ac       __imp_?OnToolHitTest@CWnd@@UBEHVCPoint@@PAUtagTOOLINFOA@@@Z 004aa2ac     mfc42d:MFC42D.DLL
 0004:000012b0       __imp_?CalcWindowRect@CWnd@@UAEXPAUtagRECT@@I@Z 004aa2b0     mfc42d:MFC42D.DLL
 0004:000012b4       __imp_?PreCreateWindow@CWnd@@UAEHAAUtagCREATESTRUCTA@@@Z 004aa2b4     mfc42d:MFC42D.DLL
 0004:000012b8       __imp_?DestroyWindow@CWnd@@UAEHXZ 004aa2b8     mfc42d:MFC42D.DLL
 0004:000012bc       __imp_?Create@CWnd@@UAEHPBD0KABUtagRECT@@PAV1@IPAUCCreateContext@@@Z 004aa2bc     mfc42d:MFC42D.DLL
 0004:000012c0       __imp_?PreSubclassWindow@CWnd@@UAEXXZ 004aa2c0     mfc42d:MFC42D.DLL
 0004:000012c4       __imp_?GetConnectionHook@CCmdTarget@@MAEPAUIConnectionPoint@@ABU_GUID@@@Z 004aa2c4     mfc42d:MFC42D.DLL
 0004:000012c8       __imp_?GetExtraConnectionPoints@CCmdTarget@@MAEHPAVCPtrArray@@@Z 004aa2c8     mfc42d:MFC42D.DLL
 0004:000012cc       __imp_?GetInterfaceHook@CCmdTarget@@UAEPAUIUnknown@@PBX@Z 004aa2cc     mfc42d:MFC42D.DLL
 0004:000012d0       __imp_?OnCreateAggregates@CCmdTarget@@UAEHXZ 004aa2d0     mfc42d:MFC42D.DLL
 0004:000012d4       __imp_?GetEventSinkMap@CCmdTarget@@MBEPBUAFX_EVENTSINKMAP@@XZ 004aa2d4     mfc42d:MFC42D.DLL
 0004:000012d8       __imp_?GetInterfaceMap@CCmdTarget@@MBEPBUAFX_INTERFACEMAP@@XZ 004aa2d8     mfc42d:MFC42D.DLL
 0004:000012dc       __imp_?GetConnectionMap@CCmdTarget@@MBEPBUAFX_CONNECTIONMAP@@XZ 004aa2dc     mfc42d:MFC42D.DLL
 0004:000012e0       __imp_?GetDispatchMap@CCmdTarget@@MBEPBUAFX_DISPMAP@@XZ 004aa2e0     mfc42d:MFC42D.DLL
 0004:000012e4       __imp_?GetCommandMap@CCmdTarget@@MBEPBUAFX_OLECMDMAP@@XZ 004aa2e4     mfc42d:MFC42D.DLL
 0004:000012e8       __imp_?GetTypeLib@CCmdTarget@@UAEJKPAPAUITypeLib@@@Z 004aa2e8     mfc42d:MFC42D.DLL
 0004:000012ec       __imp_?GetTypeLibCache@CCmdTarget@@UAEPAVCTypeLibCache@@XZ 004aa2ec     mfc42d:MFC42D.DLL
 0004:000012f0       __imp_?GetTypeInfoCount@CCmdTarget@@UAEIXZ 004aa2f0     mfc42d:MFC42D.DLL
 0004:000012f4       __imp_?GetDispatchIID@CCmdTarget@@UAEHPAU_GUID@@@Z 004aa2f4     mfc42d:MFC42D.DLL
 0004:000012f8       __imp_?IsInvokeAllowed@CCmdTarget@@UAEHJ@Z 004aa2f8     mfc42d:MFC42D.DLL
 0004:000012fc       __imp_?OnFinalRelease@CWnd@@UAEXXZ 004aa2fc     mfc42d:MFC42D.DLL
 0004:00001300       __imp_?OnCmdMsg@CDialog@@UAEHIHPAXPAUAFX_CMDHANDLERINFO@@@Z 004aa300     mfc42d:MFC42D.DLL
 0004:00001304       __imp_?Dump@CDialog@@UBEXAAVCDumpContext@@@Z 004aa304     mfc42d:MFC42D.DLL
 0004:00001308       __imp_?AssertValid@CDialog@@UBEXXZ 004aa308     mfc42d:MFC42D.DLL
 0004:0000130c       __imp_?Serialize@CObject@@UAEXAAVCArchive@@@Z 004aa30c     mfc42d:MFC42D.DLL
 0004:00001310       __imp_?GetRuntimeClass@CDialog@@UBEPAUCRuntimeClass@@XZ 004aa310     mfc42d:MFC42D.DLL
 0004:00001314       __imp_??1CBrush@@UAE@XZ    004aa314     mfc42d:MFC42D.DLL
 0004:00001318       __imp_??0CFont@@QAE@XZ     004aa318     mfc42d:MFC42D.DLL
 0004:0000131c       __imp_??0CBrush@@QAE@XZ    004aa31c     mfc42d:MFC42D.DLL
 0004:00001320       __imp_??0CDialog@@QAE@IPAVCWnd@@@Z 004aa320     mfc42d:MFC42D.DLL
 0004:00001324       __imp_??1CFont@@UAE@XZ     004aa324     mfc42d:MFC42D.DLL
 0004:00001328       __imp_?DoDataExchange@CWnd@@MAEXPAVCDataExchange@@@Z 004aa328     mfc42d:MFC42D.DLL
 0004:0000132c       __imp_?messageMap@CDialog@@1UAFX_MSGMAP@@B 004aa32c     mfc42d:MFC42D.DLL
 0004:00001330       __imp_?OnEraseBkgnd@CWnd@@IAEHPAVCDC@@@Z 004aa330     mfc42d:MFC42D.DLL
 0004:00001334       __imp_??1CPaintDC@@UAE@XZ  004aa334     mfc42d:MFC42D.DLL
 0004:00001338       __imp_?DrawTextA@CDC@@UAEHPBDHPAUtagRECT@@I@Z 004aa338     mfc42d:MFC42D.DLL
 0004:0000133c       __imp_?CreateStockObject@CGdiObject@@QAEHH@Z 004aa33c     mfc42d:MFC42D.DLL
 0004:00001340       __imp_?ScreenToClient@CWnd@@QBEXPAUtagRECT@@@Z 004aa340     mfc42d:MFC42D.DLL
 0004:00001344       __imp_?GetWindowRect@CWnd@@QBEXPAUtagRECT@@@Z 004aa344     mfc42d:MFC42D.DLL
 0004:00001348       __imp_?GetDlgItem@CWnd@@QBEPAV1@H@Z 004aa348     mfc42d:MFC42D.DLL
 0004:0000134c       __imp_??0CPaintDC@@QAE@PAVCWnd@@@Z 004aa34c     mfc42d:MFC42D.DLL
 0004:00001350       __imp_??1CSliderCtrl@@UAE@XZ 004aa350     mfc42d:MFC42D.DLL
 0004:00001354       __imp_?CreateSolidBrush@CBrush@@QAEHK@Z 004aa354     mfc42d:MFC42D.DLL
 0004:00001358       __imp_??0CSliderCtrl@@QAE@XZ 004aa358     mfc42d:MFC42D.DLL
 0004:0000135c       __imp_??0CDialog@@QAE@XZ   004aa35c     mfc42d:MFC42D.DLL
 0004:00001360       __imp_??1CButton@@UAE@XZ   004aa360     mfc42d:MFC42D.DLL
 0004:00001364       __imp_?EnableWindow@CWnd@@QAEHH@Z 004aa364     mfc42d:MFC42D.DLL
 0004:00001368       __imp_?Create@CButton@@QAEHPBDKABUtagRECT@@PAVCWnd@@I@Z 004aa368     mfc42d:MFC42D.DLL
 0004:0000136c       __imp_?SetButtonStyle@CButton@@QAEXIH@Z 004aa36c     mfc42d:MFC42D.DLL
 0004:00001370       __imp_?GetButtonStyle@CButton@@QBEIXZ 004aa370     mfc42d:MFC42D.DLL
 0004:00001374       __imp_?SubclassDlgItem@CWnd@@QAEHIPAV1@@Z 004aa374     mfc42d:MFC42D.DLL
 0004:00001378       __imp_?PostMessageA@CWnd@@QAEHIIJ@Z 004aa378     mfc42d:MFC42D.DLL
 0004:0000137c       __imp_?GetParent@CWnd@@QBEPAV1@XZ 004aa37c     mfc42d:MFC42D.DLL
 0004:00001380       __imp_?SetWindowTextA@CWnd@@QAEXPBD@Z 004aa380     mfc42d:MFC42D.DLL
 0004:00001384       __imp_?EnableToolTips@CWnd@@QAEHH@Z 004aa384     mfc42d:MFC42D.DLL
 0004:00001388       __imp_?_mbstowcsz@@YAHPAGPBDI@Z 004aa388     mfc42d:MFC42D.DLL
 0004:0000138c       __imp_?LoadStringA@CString@@QAEHI@Z 004aa38c     mfc42d:MFC42D.DLL
 0004:00001390       __imp_?IsWindowEnabled@CWnd@@QBEHXZ 004aa390     mfc42d:MFC42D.DLL
 0004:00001394       __imp_?SetForegroundWindow@CWnd@@QAEHXZ 004aa394     mfc42d:MFC42D.DLL
 0004:00001398       __imp_?GetForegroundWindow@CWnd@@SGPAV1@XZ 004aa398     mfc42d:MFC42D.DLL
 0004:0000139c       __imp_?SetPos@CSliderCtrl@@QAEXH@Z 004aa39c     mfc42d:MFC42D.DLL
 0004:000013a0       __imp_?SetRange@CSliderCtrl@@QAEXHHH@Z 004aa3a0     mfc42d:MFC42D.DLL
 0004:000013a4       __imp_?GetWindowTextA@CWnd@@QBEXAAVCString@@@Z 004aa3a4     mfc42d:MFC42D.DLL
 0004:000013a8       __imp_?OnCtlColor@CDialog@@IAEPAUHBRUSH__@@PAVCDC@@PAVCWnd@@I@Z 004aa3a8     mfc42d:MFC42D.DLL
 0004:000013ac       __imp_?MoveWindow@CWnd@@QAEXPBUtagRECT@@H@Z 004aa3ac     mfc42d:MFC42D.DLL
 0004:000013b0       __imp_?ModifyStyle@CWnd@@QAEHKKI@Z 004aa3b0     mfc42d:MFC42D.DLL
 0004:000013b4       __imp_?GetStyle@CWnd@@QBEKXZ 004aa3b4     mfc42d:MFC42D.DLL
 0004:000013b8       __imp_?OnSize@CWnd@@IAEXIHH@Z 004aa3b8     mfc42d:MFC42D.DLL
 0004:000013bc       __imp_?Find@CString@@QBEHPBD@Z 004aa3bc     mfc42d:MFC42D.DLL
 0004:000013c0       __imp_?GetPos@CSliderCtrl@@QBEHXZ 004aa3c0     mfc42d:MFC42D.DLL
 0004:000013c4       __imp_?OnHScroll@CWnd@@IAEXIIPAVCScrollBar@@@Z 004aa3c4     mfc42d:MFC42D.DLL
 0004:000013c8       __imp_?SetOccDialogInfo@CWnd@@MAEHPAU_AFX_OCC_DIALOG_INFO@@@Z 004aa3c8     mfc42d:MFC42D.DLL
 0004:000013cc       __imp_?CheckAutoCenter@CWnd@@UAEHXZ 004aa3cc     mfc42d:MFC42D.DLL
 0004:000013d0       __imp_?OnChildNotify@CButton@@MAEHIIJPAJ@Z 004aa3d0     mfc42d:MFC42D.DLL
 0004:000013d4       __imp_?PreTranslateMessage@CWnd@@UAEHPAUtagMSG@@@Z 004aa3d4     mfc42d:MFC42D.DLL
 0004:000013d8       __imp_?OnCmdMsg@CCmdTarget@@UAEHIHPAXPAUAFX_CMDHANDLERINFO@@@Z 004aa3d8     mfc42d:MFC42D.DLL
 0004:000013dc       __imp_?Dump@CWnd@@UBEXAAVCDumpContext@@@Z 004aa3dc     mfc42d:MFC42D.DLL
 0004:000013e0       __imp_?AssertValid@CWnd@@UBEXXZ 004aa3e0     mfc42d:MFC42D.DLL
 0004:000013e4       __imp_?GetRuntimeClass@CButton@@UBEPAUCRuntimeClass@@XZ 004aa3e4     mfc42d:MFC42D.DLL
 0004:000013e8       __imp_?CreateFontIndirectA@CFont@@QAEHPBUtagLOGFONTA@@@Z 004aa3e8     mfc42d:MFC42D.DLL
 0004:000013ec       __imp_?GetLogFont@CFont@@QAEHPAUtagLOGFONTA@@@Z 004aa3ec     mfc42d:MFC42D.DLL
 0004:000013f0       __imp_??0CButton@@QAE@XZ   004aa3f0     mfc42d:MFC42D.DLL
 0004:000013f4       __imp_?messageMap@CWnd@@1UAFX_MSGMAP@@B 004aa3f4     mfc42d:MFC42D.DLL
 0004:000013f8       __imp_??0CRect@@QAE@ABUtagRECT@@@Z 004aa3f8     mfc42d:MFC42D.DLL
 0004:000013fc       __imp_?GetState@CButton@@QBEIXZ 004aa3fc     mfc42d:MFC42D.DLL
 0004:00001400       __imp_?OnMeasureItem@CWnd@@IAEXHPAUtagMEASUREITEMSTRUCT@@@Z 004aa400     mfc42d:MFC42D.DLL
 0004:00001404       __imp_?TopLeft@CRect@@QBEABVCPoint@@XZ 004aa404     mfc42d:MFC42D.DLL
 0004:00001408       __imp_?BottomRight@CRect@@QBEABVCPoint@@XZ 004aa408     mfc42d:MFC42D.DLL
 0004:0000140c       __imp_?DDX_Text@@YGXPAVCDataExchange@@HAAVCString@@@Z 004aa40c     mfc42d:MFC42D.DLL
 0004:00001410       __imp_?DDV_MinMaxDouble@@YGXPAVCDataExchange@@ABNNN@Z 004aa410     mfc42d:MFC42D.DLL
 0004:00001414       __imp_?DDX_Text@@YGXPAVCDataExchange@@HAAN@Z 004aa414     mfc42d:MFC42D.DLL
 0004:00001418       __imp_??3CObject@@SGXPAXPBDH@Z 004aa418     mfc42d:MFC42D.DLL
 0004:0000141c       __imp_??1CTabCtrl@@UAE@XZ  004aa41c     mfc42d:MFC42D.DLL
 0004:00001420       __imp_??2CObject@@SGPAXIPBDH@Z 004aa420     mfc42d:MFC42D.DLL
 0004:00001424       __imp_??0CTabCtrl@@QAE@XZ  004aa424     mfc42d:MFC42D.DLL
 0004:00001428       __imp_?DDX_Control@@YGXPAVCDataExchange@@HAAVCWnd@@@Z 004aa428     mfc42d:MFC42D.DLL
 0004:0000142c       __imp_?GetItemRect@CTabCtrl@@QBEHHPAUtagRECT@@@Z 004aa42c     mfc42d:MFC42D.DLL
 0004:00001430       __imp_??8@YG_NABVCString@@0@Z 004aa430     mfc42d:MFC42D.DLL
 0004:00001434       __imp_?MessageBoxA@CWnd@@QAEHPBD0I@Z 004aa434     mfc42d:MFC42D.DLL
 0004:00001438       __imp_?UpdateWindow@CWnd@@QAEXXZ 004aa438     mfc42d:MFC42D.DLL
 0004:0000143c       __imp_?OnNcHitTest@CWnd@@IAEIVCPoint@@@Z 004aa43c     mfc42d:MFC42D.DLL
 0004:00001440       __imp_?classCEdit@CEdit@@2UCRuntimeClass@@B 004aa440     mfc42d:MFC42D.DLL
 0004:00001444       __imp_??0CEdit@@QAE@XZ     004aa444     mfc42d:MFC42D.DLL
 0004:00001448       __imp_??1CEdit@@UAE@XZ     004aa448     mfc42d:MFC42D.DLL
 0004:0000144c       __imp_?ExitHelpMode@CFrameWnd@@UAEXXZ 004aa44c     mfc42d:MFC42D.DLL
 0004:00001450       __imp_?DelayUpdateFrameMenu@CFrameWnd@@UAEXPAUHMENU__@@@Z 004aa450     mfc42d:MFC42D.DLL
 0004:00001454       __imp_?GetDefaultAccelerator@CFrameWnd@@UAEPAUHACCEL__@@XZ 004aa454     mfc42d:MFC42D.DLL
 0004:00001458       __imp_?SelectObject@CDC@@QAEPAVCBitmap@@PAV2@@Z 004aa458     mfc42d:MFC42D.DLL
 0004:0000145c       __imp_?GetSafeHwnd@CWnd@@QBEPAUHWND__@@XZ 004aa45c     mfc42d:MFC42D.DLL
 0004:00001460       __imp_?NegotiateBorderSpace@CFrameWnd@@UAEHIPAUtagRECT@@@Z 004aa460     mfc42d:MFC42D.DLL
 0004:00001464       __imp_?GetMessageBar@CFrameWnd@@UAEPAVCWnd@@XZ 004aa464     mfc42d:MFC42D.DLL
 0004:00001468       __imp_?OnSetPreviewMode@CFrameWnd@@UAEXHPAUCPrintPreviewState@@@Z 004aa468     mfc42d:MFC42D.DLL
 0004:0000146c       __imp_?ActivateFrame@CFrameWnd@@UAEXH@Z 004aa46c     mfc42d:MFC42D.DLL
 0004:00001470       __imp_?RecalcLayout@CFrameWnd@@UAEXH@Z 004aa470     mfc42d:MFC42D.DLL
 0004:00001474       __imp_?GetMessageString@CFrameWnd@@UBEXIAAVCString@@@Z 004aa474     mfc42d:MFC42D.DLL
 0004:00001478       __imp_?GetActiveFrame@CFrameWnd@@UAEPAV1@XZ 004aa478     mfc42d:MFC42D.DLL
 0004:0000147c       __imp_?GetActiveDocument@CFrameWnd@@UAEPAVCDocument@@XZ 004aa47c     mfc42d:MFC42D.DLL
 0004:00001480       __imp_?LoadFrame@CFrameWnd@@UAEHIKPAVCWnd@@PAUCCreateContext@@@Z 004aa480     mfc42d:MFC42D.DLL
 0004:00001484       __imp_?IsFrameWnd@CFrameWnd@@UBEHXZ 004aa484     mfc42d:MFC42D.DLL
 0004:00001488       __imp_?PostNcDestroy@CFrameWnd@@MAEXXZ 004aa488     mfc42d:MFC42D.DLL
 0004:0000148c       __imp_?PreTranslateMessage@CFrameWnd@@UAEHPAUtagMSG@@@Z 004aa48c     mfc42d:MFC42D.DLL
 0004:00001490       __imp_?EndModalState@CFrameWnd@@UAEXXZ 004aa490     mfc42d:MFC42D.DLL
 0004:00001494       __imp_?BeginModalState@CFrameWnd@@UAEXXZ 004aa494     mfc42d:MFC42D.DLL
 0004:00001498       __imp_?OnCommand@CFrameWnd@@MAEHIJ@Z 004aa498     mfc42d:MFC42D.DLL
 0004:0000149c       __imp_?PreCreateWindow@CFrameWnd@@MAEHAAUtagCREATESTRUCTA@@@Z 004aa49c     mfc42d:MFC42D.DLL
 0004:000014a0       __imp_?OnCmdMsg@CFrameWnd@@UAEHIHPAXPAUAFX_CMDHANDLERINFO@@@Z 004aa4a0     mfc42d:MFC42D.DLL
 0004:000014a4       __imp_?Dump@CFrameWnd@@UBEXAAVCDumpContext@@@Z 004aa4a4     mfc42d:MFC42D.DLL
 0004:000014a8       __imp_?AssertValid@CFrameWnd@@UBEXXZ 004aa4a8     mfc42d:MFC42D.DLL
 0004:000014ac       __imp_?GetRuntimeClass@CFrameWnd@@UBEPAUCRuntimeClass@@XZ 004aa4ac     mfc42d:MFC42D.DLL
 0004:000014b0       __imp_??0CFrameWnd@@QAE@XZ 004aa4b0     mfc42d:MFC42D.DLL
 0004:000014b4       __imp_??1CFrameWnd@@UAE@XZ 004aa4b4     mfc42d:MFC42D.DLL
 0004:000014b8       __imp_?messageMap@CFrameWnd@@1UAFX_MSGMAP@@B 004aa4b8     mfc42d:MFC42D.DLL
 0004:000014bc       __imp_?OnCreateClient@CFrameWnd@@MAEHPAUtagCREATESTRUCTA@@PAUCCreateContext@@@Z 004aa4bc     mfc42d:MFC42D.DLL
 0004:000014c0       __imp_?SetActiveView@CFrameWnd@@QAEXPAVCView@@H@Z 004aa4c0     mfc42d:MFC42D.DLL
 0004:000014c4       __imp_?rectDefault@CFrameWnd@@2VCRect@@B 004aa4c4     mfc42d:MFC42D.DLL
 0004:000014c8       __imp_?classCScrollView@CScrollView@@2UCRuntimeClass@@B 004aa4c8     mfc42d:MFC42D.DLL
 0004:000014cc       __imp_?OnEndPrintPreview@CView@@MAEXPAVCDC@@PAUCPrintInfo@@UtagPOINT@@PAVCPreviewView@@@Z 004aa4cc     mfc42d:MFC42D.DLL
 0004:000014d0       __imp_?OnEndPrinting@CView@@MAEXPAVCDC@@PAUCPrintInfo@@@Z 004aa4d0     mfc42d:MFC42D.DLL
 0004:000014d4       __imp_?OnPrint@CView@@MAEXPAVCDC@@PAUCPrintInfo@@@Z 004aa4d4     mfc42d:MFC42D.DLL
 0004:000014d8       __imp_?OnBeginPrinting@CView@@MAEXPAVCDC@@PAUCPrintInfo@@@Z 004aa4d8     mfc42d:MFC42D.DLL
 0004:000014dc       __imp_?OnPreparePrinting@CView@@MAEHPAUCPrintInfo@@@Z 004aa4dc     mfc42d:MFC42D.DLL
 0004:000014e0       __imp_?OnUpdate@CView@@MAEXPAV1@JPAVCObject@@@Z 004aa4e0     mfc42d:MFC42D.DLL
 0004:000014e4       __imp_?OnActivateFrame@CView@@MAEXIPAVCFrameWnd@@@Z 004aa4e4     mfc42d:MFC42D.DLL
 0004:000014e8       __imp_?OnActivateView@CView@@MAEXHPAV1@0@Z 004aa4e8     mfc42d:MFC42D.DLL
 0004:000014ec       __imp_?OnPrepareDC@CScrollView@@UAEXPAVCDC@@PAUCPrintInfo@@@Z 004aa4ec     mfc42d:MFC42D.DLL
 0004:000014f0       __imp_?OnDragScroll@CView@@UAEKKVCPoint@@@Z 004aa4f0     mfc42d:MFC42D.DLL
 0004:000014f4       __imp_?OnDropEx@CView@@UAEKPAVCOleDataObject@@KKVCPoint@@@Z 004aa4f4     mfc42d:MFC42D.DLL
 0004:000014f8       __imp_?OnDrop@CView@@UAEHPAVCOleDataObject@@KVCPoint@@@Z 004aa4f8     mfc42d:MFC42D.DLL
 0004:000014fc       __imp_?OnDragLeave@CView@@UAEXXZ 004aa4fc     mfc42d:MFC42D.DLL
 0004:00001500       __imp_?OnDragOver@CView@@UAEKPAVCOleDataObject@@KVCPoint@@@Z 004aa500     mfc42d:MFC42D.DLL
 0004:00001504       __imp_?OnDragEnter@CView@@UAEKPAVCOleDataObject@@KVCPoint@@@Z 004aa504     mfc42d:MFC42D.DLL
 0004:00001508       __imp_?OnScrollBy@CScrollView@@UAEHVCSize@@H@Z 004aa508     mfc42d:MFC42D.DLL
 0004:0000150c       __imp_?OnScroll@CScrollView@@UAEHIIH@Z 004aa50c     mfc42d:MFC42D.DLL
 0004:00001510       __imp_?IsSelected@CView@@UBEHPBVCObject@@@Z 004aa510     mfc42d:MFC42D.DLL
 0004:00001514       __imp_?PostNcDestroy@CView@@MAEXXZ 004aa514     mfc42d:MFC42D.DLL
 0004:00001518       __imp_?GetScrollBarCtrl@CView@@UBEPAVCScrollBar@@H@Z 004aa518     mfc42d:MFC42D.DLL
 0004:0000151c       __imp_?CalcWindowRect@CScrollView@@UAEXPAUtagRECT@@I@Z 004aa51c     mfc42d:MFC42D.DLL
 0004:00001520       __imp_?PreCreateWindow@CView@@MAEHAAUtagCREATESTRUCTA@@@Z 004aa520     mfc42d:MFC42D.DLL
 0004:00001524       __imp_?OnCmdMsg@CView@@UAEHIHPAXPAUAFX_CMDHANDLERINFO@@@Z 004aa524     mfc42d:MFC42D.DLL
 0004:00001528       __imp_??1CScrollView@@UAE@XZ 004aa528     mfc42d:MFC42D.DLL
 0004:0000152c       __imp_??0CScrollView@@IAE@XZ 004aa52c     mfc42d:MFC42D.DLL
 0004:00001530       __imp_?messageMap@CScrollView@@1UAFX_MSGMAP@@B 004aa530     mfc42d:MFC42D.DLL
 0004:00001534       __imp_?FromHandle@CFont@@SGPAV1@PAUHFONT__@@@Z 004aa534     mfc42d:MFC42D.DLL
 0004:00001538       __imp_??1CMenu@@UAE@XZ     004aa538     mfc42d:MFC42D.DLL
 0004:0000153c       __imp_?TrackPopupMenu@CMenu@@QAEHIHHPAVCWnd@@PBUtagRECT@@@Z 004aa53c     mfc42d:MFC42D.DLL
 0004:00001540       __imp_?AppendMenuA@CMenu@@QAEHIIPBD@Z 004aa540     mfc42d:MFC42D.DLL
 0004:00001544       __imp_?CreatePopupMenu@CMenu@@QAEHXZ 004aa544     mfc42d:MFC42D.DLL
 0004:00001548       __imp_??0CMenu@@QAE@XZ     004aa548     mfc42d:MFC42D.DLL
 0004:0000154c       __imp_?OpenClipboard@CWnd@@QAEHXZ 004aa54c     mfc42d:MFC42D.DLL
 0004:00001550       __imp_?AssertValid@CScrollView@@UBEXXZ 004aa550     mfc42d:MFC42D.DLL
 0004:00001554       __imp_?Dump@CScrollView@@UBEXAAVCDumpContext@@@Z 004aa554     mfc42d:MFC42D.DLL
 0004:00001558       __imp_?SetScrollSizes@CScrollView@@QAEXHUtagSIZE@@ABU2@1@Z 004aa558     mfc42d:MFC42D.DLL
 0004:0000155c       __imp_?sizeDefault@CScrollView@@2UtagSIZE@@B 004aa55c     mfc42d:MFC42D.DLL
 0004:00001560       __imp_?OnInitialUpdate@CView@@UAEXXZ 004aa560     mfc42d:MFC42D.DLL
 0004:00001564       __imp_?OnSize@CScrollView@@QAEXIHH@Z 004aa564     mfc42d:MFC42D.DLL
 0004:00001568       __imp_?ScrollToPosition@CScrollView@@QAEXUtagPOINT@@@Z 004aa568     mfc42d:MFC42D.DLL
 0004:0000156c       __imp_?FillRect@CDC@@QAEXPBUtagRECT@@PAVCBrush@@@Z 004aa56c     mfc42d:MFC42D.DLL
 0004:00001570       __imp_?CreateSysColorBrush@CBrush@@QAEHH@Z 004aa570     mfc42d:MFC42D.DLL
 0004:00001574       __imp_??1CString@@QAE@XZ   004aa574     mfc42d:MFC42D.DLL
 0004:00001578       __imp_?OnLButtonUp@CWnd@@IAEXIVCPoint@@@Z 004aa578     mfc42d:MFC42D.DLL
 0004:0000157c       __imp_??3CException@@SGXPAXPBDH@Z 004aa57c     mfc42d:MFC42D.DLL
 0004:00001580       __imp_?classCException@CException@@2UCRuntimeClass@@B 004aa580     mfc42d:MFC42D.DLL
 0004:00001584       __imp_??1CFileException@@UAE@XZ 004aa584     mfc42d:MFC42D.DLL
 0004:00001588       __imp_??0CFileException@@QAE@HJPBD@Z 004aa588     mfc42d:MFC42D.DLL
 0004:0000158c       __imp_?CreateFontA@CFont@@QAEHHHHHHEEEEEEEEPBD@Z 004aa58c     mfc42d:MFC42D.DLL
 0004:00001590       __imp_?GetTextMetricsA@CDC@@QBEHPAUtagTEXTMETRICA@@@Z 004aa590     mfc42d:MFC42D.DLL
 0004:00001594       __imp_?DDV_MaxChars@@YGXPAVCDataExchange@@ABVCString@@H@Z 004aa594     mfc42d:MFC42D.DLL
 0004:00001598       __imp_?DDX_Text@@YGXPAVCDataExchange@@HAAH@Z 004aa598     mfc42d:MFC42D.DLL
 0004:0000159c       __imp_?UpdateData@CWnd@@QAEHH@Z 004aa59c     mfc42d:MFC42D.DLL
 0004:000015a0       __imp_?SetActiveWindow@CWnd@@QAEPAV1@XZ 004aa5a0     mfc42d:MFC42D.DLL
 0004:000015a4       __imp_?SetCapture@CWnd@@QAEPAV1@XZ 004aa5a4     mfc42d:MFC42D.DLL
 0004:000015a8       __imp_?EnableModeless@CWinApp@@QAEXH@Z 004aa5a8     mfc42d:MFC42D.DLL
 0004:000015ac       __imp_?AfxGetApp@@YGPAVCWinApp@@XZ 004aa5ac     mfc42d:MFC42D.DLL
 0004:000015b0       __imp_?GetSafeOwner@CWnd@@SGPAV1@PAV1@PAPAUHWND__@@@Z 004aa5b0     mfc42d:MFC42D.DLL
 0004:000015b4       __imp_?AfxMessageBox@@YGHIII@Z 004aa5b4     mfc42d:MFC42D.DLL
 0004:000015b8       __imp_?OnKillFocus@CWnd@@IAEXPAV1@@Z 004aa5b8     mfc42d:MFC42D.DLL
 0004:000015bc       __imp_??1CSplitterWnd@@UAE@XZ 004aa5bc     mfc42d:MFC42D.DLL
 0004:000015c0       __imp_??0CStatusBar@@QAE@XZ 004aa5c0     mfc42d:MFC42D.DLL
 0004:000015c4       __imp_??0CSplitterWnd@@QAE@XZ 004aa5c4     mfc42d:MFC42D.DLL
 0004:000015c8       __imp_??1CStatusBar@@UAE@XZ 004aa5c8     mfc42d:MFC42D.DLL
 0004:000015cc       __imp_?ModifyStyleEx@CWnd@@QAEHKKI@Z 004aa5cc     mfc42d:MFC42D.DLL
 0004:000015d0       __imp_?SetPaneInfo@CStatusBar@@QAEXHIIH@Z 004aa5d0     mfc42d:MFC42D.DLL
 0004:000015d4       __imp_?SetPaneText@CStatusBar@@QAEHHPBDH@Z 004aa5d4     mfc42d:MFC42D.DLL
 0004:000015d8       __imp_?SetIndicators@CStatusBar@@QAEHPBIH@Z 004aa5d8     mfc42d:MFC42D.DLL
 0004:000015dc       __imp_?Create@CStatusBar@@QAEHPAVCWnd@@KI@Z 004aa5dc     mfc42d:MFC42D.DLL
 0004:000015e0       __imp_?OnCreate@CFrameWnd@@IAEHPAUtagCREATESTRUCTA@@@Z 004aa5e0     mfc42d:MFC42D.DLL
 0004:000015e4       __imp_?OnSize@CFrameWnd@@IAEXIHH@Z 004aa5e4     mfc42d:MFC42D.DLL
 0004:000015e8       __imp_?OnClose@CFrameWnd@@IAEXXZ 004aa5e8     mfc42d:MFC42D.DLL
 0004:000015ec       __imp_?SetMenu@CWnd@@QAEHPAVCMenu@@@Z 004aa5ec     mfc42d:MFC42D.DLL
 0004:000015f0       __imp_?GetMenu@CWnd@@QBEPAVCMenu@@XZ 004aa5f0     mfc42d:MFC42D.DLL
 0004:000015f4       __imp_?IsIconic@CWnd@@QBEHXZ 004aa5f4     mfc42d:MFC42D.DLL
 0004:000015f8       __imp_?SetWindowPos@CWnd@@QAEHPBV1@HHHHI@Z 004aa5f8     mfc42d:MFC42D.DLL
 0004:000015fc       __imp_?MoveWindow@CWnd@@QAEXHHHHH@Z 004aa5fc     mfc42d:MFC42D.DLL
 0004:00001600       __imp_?IsRectEmpty@CRect@@QBEHXZ 004aa600     mfc42d:MFC42D.DLL
 0004:00001604       __imp_?OnGetMinMaxInfo@CWnd@@IAEXPAUtagMINMAXINFO@@@Z 004aa604     mfc42d:MFC42D.DLL
 0004:00001608       __imp_?GetControlBar@CFrameWnd@@QAEPAVCControlBar@@I@Z 004aa608     mfc42d:MFC42D.DLL
 0004:0000160c       __imp_?ClientToScreen@CWnd@@QBEXPAUtagRECT@@@Z 004aa60c     mfc42d:MFC42D.DLL
 0004:00001610       __imp_?OnMove@CWnd@@IAEXHH@Z 004aa610     mfc42d:MFC42D.DLL
 0004:00001614       __imp_?KillTimer@CWnd@@QAEHH@Z 004aa614     mfc42d:MFC42D.DLL
 0004:00001618       __imp_?OnTimer@CWnd@@IAEXI@Z 004aa618     mfc42d:MFC42D.DLL
 0004:0000161c       __imp_?IsWindowVisible@CWnd@@QBEHXZ 004aa61c     mfc42d:MFC42D.DLL
 0004:00001620       __imp_?Dump@CMenu@@UBEXAAVCDumpContext@@@Z 004aa620     mfc42d:MFC42D.DLL
 0004:00001624       __imp_?AssertValid@CMenu@@UBEXXZ 004aa624     mfc42d:MFC42D.DLL
 0004:00001628       __imp_?GetRuntimeClass@CMenu@@UBEPAUCRuntimeClass@@XZ 004aa628     mfc42d:MFC42D.DLL
 0004:0000162c       __imp_?GetRuntimeClass@CWnd@@UBEPAUCRuntimeClass@@XZ 004aa62c     mfc42d:MFC42D.DLL
 0004:00001630       __imp_??0CWnd@@QAE@XZ      004aa630     mfc42d:MFC42D.DLL
 0004:00001634       __imp_??1CWnd@@UAE@XZ      004aa634     mfc42d:MFC42D.DLL
 0004:00001638       __imp_?CreateEx@CWnd@@QAEHKPBD0KHHHHPAUHWND__@@PAUHMENU__@@PAX@Z 004aa638     mfc42d:MFC42D.DLL
 0004:0000163c       __imp_?AfxRegisterWndClass@@YGPBDIPAUHICON__@@PAUHBRUSH__@@0@Z 004aa63c     mfc42d:MFC42D.DLL
 0004:00001640       __imp_?LoadStandardCursor@CWinApp@@QBEPAUHICON__@@PBD@Z 004aa640     mfc42d:MFC42D.DLL
 0004:00001644       __imp_?OnCreate@CWnd@@IAEHPAUtagCREATESTRUCTA@@@Z 004aa644     mfc42d:MFC42D.DLL
 0004:00001648       __imp_??BCDC@@QBEPAUHDC__@@XZ 004aa648     mfc42d:MFC42D.DLL
 0004:0000164c       __imp_?classCView@CView@@2UCRuntimeClass@@B 004aa64c     mfc42d:MFC42D.DLL
 0004:00001650       __imp_?OnPrepareDC@CView@@UAEXPAVCDC@@PAUCPrintInfo@@@Z 004aa650     mfc42d:MFC42D.DLL
 0004:00001654       __imp_?OnScrollBy@CView@@UAEHVCSize@@H@Z 004aa654     mfc42d:MFC42D.DLL
 0004:00001658       __imp_?OnScroll@CView@@UAEHIIH@Z 004aa658     mfc42d:MFC42D.DLL
 0004:0000165c       __imp_?CalcWindowRect@CView@@UAEXPAUtagRECT@@I@Z 004aa65c     mfc42d:MFC42D.DLL
 0004:00001660       __imp_??1CToolTipCtrl@@UAE@XZ 004aa660     mfc42d:MFC42D.DLL
 0004:00001664       __imp_??1CView@@UAE@XZ     004aa664     mfc42d:MFC42D.DLL
 0004:00001668       __imp_??0CToolTipCtrl@@QAE@XZ 004aa668     mfc42d:MFC42D.DLL
 0004:0000166c       __imp_??0CView@@IAE@XZ     004aa66c     mfc42d:MFC42D.DLL
 0004:00001670       __imp_?messageMap@CView@@1UAFX_MSGMAP@@B 004aa670     mfc42d:MFC42D.DLL
 0004:00001674       __imp_?AssertValid@CView@@UBEXXZ 004aa674     mfc42d:MFC42D.DLL
 0004:00001678       __imp_?Dump@CView@@UBEXAAVCDumpContext@@@Z 004aa678     mfc42d:MFC42D.DLL
 0004:0000167c       __imp_?CreateBitmap@CBitmap@@QAEHHHIIPBX@Z 004aa67c     mfc42d:MFC42D.DLL
 0004:00001680       __imp_?ModifyMenuA@CMenu@@QAEHIIIPBD@Z 004aa680     mfc42d:MFC42D.DLL
 0004:00001684       __imp_?LoadMenuA@CMenu@@QAEHI@Z 004aa684     mfc42d:MFC42D.DLL
 0004:00001688       __imp_?wndTopMost@CWnd@@2V1@B 004aa688     mfc42d:MFC42D.DLL
 0004:0000168c       __imp_?AddTool@CToolTipCtrl@@QAEHPAVCWnd@@PBDPBUtagRECT@@I@Z 004aa68c     mfc42d:MFC42D.DLL
 0004:00001690       __imp_?Create@CToolTipCtrl@@QAEHPAVCWnd@@K@Z 004aa690     mfc42d:MFC42D.DLL
 0004:00001694       __imp_?ScreenToClient@CWnd@@QBEXPAUtagPOINT@@@Z 004aa694     mfc42d:MFC42D.DLL
 0004:00001698       __imp_?OnKeyDown@CWnd@@IAEXIII@Z 004aa698     mfc42d:MFC42D.DLL
 0004:0000169c       __imp_?IntersectRect@CRect@@QAEHPBUtagRECT@@0@Z 004aa69c     mfc42d:MFC42D.DLL
 0004:000016a0       __imp_?SetRectEmpty@CRect@@QAEXXZ 004aa6a0     mfc42d:MFC42D.DLL
 0004:000016a4       __imp_?GetParentFrame@CWnd@@QBEPAVCFrameWnd@@XZ 004aa6a4     mfc42d:MFC42D.DLL
 0004:000016a8       __imp_?GetPathName@CFileDialog@@QBE?AVCString@@XZ 004aa6a8     mfc42d:MFC42D.DLL
 0004:000016ac       __imp_?DoModal@CFileDialog@@UAEHXZ 004aa6ac     mfc42d:MFC42D.DLL
 0004:000016b0       __imp_??0CFileDialog@@QAE@HPBD0K0PAVCWnd@@@Z 004aa6b0     mfc42d:MFC42D.DLL
 0004:000016b4       __imp_?SetFont@CWnd@@QAEXPAVCFont@@H@Z 004aa6b4     mfc42d:MFC42D.DLL
 0004:000016b8       __imp_?RelayEvent@CToolTipCtrl@@QAEXPAUtagMSG@@@Z 004aa6b8     mfc42d:MFC42D.DLL
 0004:000016bc       __imp_?OnMouseMove@CWnd@@IAEXIVCPoint@@@Z 004aa6bc     mfc42d:MFC42D.DLL
 0004:000016c0       __imp_?Activate@CToolTipCtrl@@QAEXH@Z 004aa6c0     mfc42d:MFC42D.DLL
 0004:000016c4       __imp_?ClientToScreen@CWnd@@QBEXPAUtagPOINT@@@Z 004aa6c4     mfc42d:MFC42D.DLL
 0004:000016c8       __imp_?GetSubMenu@CMenu@@QBEPAV1@H@Z 004aa6c8     mfc42d:MFC42D.DLL
 0004:000016cc       __imp_?OnHelp@CWinApp@@IAEXXZ 004aa6cc     mfc42d:MFC42D.DLL
 0004:000016d0       __imp_?FromHandle@CWnd@@SGPAV1@PAUHWND__@@@Z 004aa6d0     mfc42d:MFC42D.DLL
 0004:000016d4       __imp_??1CWinApp@@UAE@XZ   004aa6d4     mfc42d:MFC42D.DLL
 0004:000016d8       __imp_?SeekToBegin@CFile@@QAEXXZ 004aa6d8     mfc42d:MFC42D.DLL
 0004:000016dc       __imp_?GetPosition@CFile@@UBEKXZ 004aa6dc     mfc42d:MFC42D.DLL
 0004:000016e0       __imp_?SeekToEnd@CFile@@QAEKXZ 004aa6e0     mfc42d:MFC42D.DLL
 0004:000016e4       __imp_?messageMap@CWinApp@@1UAFX_MSGMAP@@B 004aa6e4     mfc42d:MFC42D.DLL
 0004:000016e8       __imp_?WinHelpA@CWinApp@@UAEXKI@Z 004aa6e8     mfc42d:MFC42D.DLL
 0004:000016ec       __imp_?OnDDECommand@CWinApp@@UAEHPAD@Z 004aa6ec     mfc42d:MFC42D.DLL
 0004:000016f0       __imp_?DoWaitCursor@CWinApp@@UAEXH@Z 004aa6f0     mfc42d:MFC42D.DLL
 0004:000016f4       __imp_?DoMessageBox@CWinApp@@UAEHPBDII@Z 004aa6f4     mfc42d:MFC42D.DLL
 0004:000016f8       __imp_?SaveAllModified@CWinApp@@UAEHXZ 004aa6f8     mfc42d:MFC42D.DLL
 0004:000016fc       __imp_?InitApplication@CWinApp@@UAEHXZ 004aa6fc     mfc42d:MFC42D.DLL
 0004:00001700       __imp_?AddToRecentFileList@CWinApp@@UAEXPBD@Z 004aa700     mfc42d:MFC42D.DLL
 0004:00001704       __imp_?OpenDocumentFile@CWinApp@@UAEPAVCDocument@@PBD@Z 004aa704     mfc42d:MFC42D.DLL
 0004:00001708       __imp_?Delete@CWinThread@@UAEXXZ 004aa708     mfc42d:MFC42D.DLL
 0004:0000170c       __imp_?GetMainWnd@CWinThread@@UAEPAVCWnd@@XZ 004aa70c     mfc42d:MFC42D.DLL
 0004:00001710       __imp_?ProcessMessageFilter@CWinThread@@UAEHHPAUtagMSG@@@Z 004aa710     mfc42d:MFC42D.DLL
 0004:00001714       __imp_?ProcessWndProcException@CWinApp@@UAEJPAVCException@@PBUtagMSG@@@Z 004aa714     mfc42d:MFC42D.DLL
 0004:00001718       __imp_?IsIdleMessage@CWinThread@@UAEHPAUtagMSG@@@Z 004aa718     mfc42d:MFC42D.DLL
 0004:0000171c       __imp_?PumpMessage@CWinThread@@UAEHXZ 004aa71c     mfc42d:MFC42D.DLL
 0004:00001720       __imp_?OnFinalRelease@CCmdTarget@@UAEXXZ 004aa720     mfc42d:MFC42D.DLL
 0004:00001724       __imp_?Dump@CWinApp@@UBEXAAVCDumpContext@@@Z 004aa724     mfc42d:MFC42D.DLL
 0004:00001728       __imp_?AssertValid@CWinApp@@UBEXXZ 004aa728     mfc42d:MFC42D.DLL
 0004:0000172c       __imp_?GetRuntimeClass@CWinApp@@UBEPAUCRuntimeClass@@XZ 004aa72c     mfc42d:MFC42D.DLL
 0004:00001730       __imp_??0CWinApp@@QAE@PBD@Z 004aa730     mfc42d:MFC42D.DLL
 0004:00001734       __imp_?OnIdle@CWinApp@@UAEHJ@Z 004aa734     mfc42d:MFC42D.DLL
 0004:00001738       __imp_?Run@CWinApp@@UAEHXZ 004aa738     mfc42d:MFC42D.DLL
 0004:0000173c       __imp_?ExitInstance@CWinApp@@UAEHXZ 004aa73c     mfc42d:MFC42D.DLL
 0004:00001740       __imp_?PreTranslateMessage@CWinThread@@UAEHPAUtagMSG@@@Z 004aa740     mfc42d:MFC42D.DLL
 0004:00001744       __imp_?GetClientRect@CWnd@@QBEXPAUtagRECT@@@Z 004aa744     mfc42d:MFC42D.DLL
 0004:00001748       __imp_?AfxAssertValidObject@@YGXPBVCObject@@PBDH@Z 004aa748     mfc42d:MFC42D.DLL
 0004:0000174c       __imp_?OffsetRect@CRect@@QAEXHH@Z 004aa74c     mfc42d:MFC42D.DLL
 0004:00001750       __imp_?AfxAssertFailedLine@@YGHPBDH@Z 004aa750     mfc42d:MFC42D.DLL
 0004:00001754       __imp_??0CRect@@QAE@UtagPOINT@@0@Z 004aa754     mfc42d:MFC42D.DLL
 0004:00001758       __imp_??0CRect@@QAE@UtagPOINT@@UtagSIZE@@@Z 004aa758     mfc42d:MFC42D.DLL
 0004:0000175c       __imp_??0CRect@@QAE@XZ     004aa75c     mfc42d:MFC42D.DLL
 0004:00001760       __imp_?UnionRect@CRect@@QAEHPBUtagRECT@@0@Z 004aa760     mfc42d:MFC42D.DLL
 0004:00001764       __imp_??BCString@@QBEPBDXZ 004aa764     mfc42d:MFC42D.DLL
 0004:00001768       __imp_?SetBkMode@CDC@@QAEHH@Z 004aa768     mfc42d:MFC42D.DLL
 0004:0000176c       __imp_??0CPoint@@QAE@HH@Z  004aa76c     mfc42d:MFC42D.DLL
 0004:00001770       __imp_?TopLeft@CRect@@QAEAAVCPoint@@XZ 004aa770     mfc42d:MFC42D.DLL
 0004:00001774       __imp_??HCPoint@@QBE?AV0@UtagPOINT@@@Z 004aa774     mfc42d:MFC42D.DLL
 0004:00001778       __imp_??BCRect@@QAEPAUtagRECT@@XZ 004aa778     mfc42d:MFC42D.DLL
 0004:0000177c       __imp_?DrawTextA@CDC@@QAEHABVCString@@PAUtagRECT@@I@Z 004aa77c     mfc42d:MFC42D.DLL
 0004:00001780       __imp_??3@YAXPAX@Z         004aa780     mfc42d:MFC42D.DLL
 0004:00001784       __imp_??0CSize@@QAE@HH@Z   004aa784     mfc42d:MFC42D.DLL
 0004:00001788       __imp_??0CString@@QAE@ABV0@@Z 004aa788     mfc42d:MFC42D.DLL
 0004:0000178c       __imp_?Format@CString@@QAAXPBDZZ 004aa78c     mfc42d:MFC42D.DLL
 0004:00001790       __imp_??0CString@@QAE@PBD@Z 004aa790     mfc42d:MFC42D.DLL
 0004:00001794       __imp_??H@YG?AVCString@@ABV0@0@Z 004aa794     mfc42d:MFC42D.DLL
 0004:00001798       __imp_??YCString@@QAEABV0@ABV0@@Z 004aa798     mfc42d:MFC42D.DLL
 0004:0000179c       __imp_??9CPoint@@QBEHUtagPOINT@@@Z 004aa79c     mfc42d:MFC42D.DLL
 0004:000017a0       __imp_?Attach@CGdiObject@@QAEHPAX@Z 004aa7a0     mfc42d:MFC42D.DLL
 0004:000017a4       __imp_?BitBlt@CDC@@QAEHHHHHPAV1@HHK@Z 004aa7a4     mfc42d:MFC42D.DLL
 0004:000017a8       __imp_??0CBitmap@@QAE@XZ   004aa7a8     mfc42d:MFC42D.DLL
 0004:000017ac       __imp_?DeleteObject@CGdiObject@@QAEHXZ 004aa7ac     mfc42d:MFC42D.DLL
 0004:000017b0       __imp_??1CBitmap@@UAE@XZ   004aa7b0     mfc42d:MFC42D.DLL
 0004:000017b4       __imp_?GetBitmap@CBitmap@@QAEHPAUtagBITMAP@@@Z 004aa7b4     mfc42d:MFC42D.DLL
 0004:000017b8       __imp_??2@YAPAXI@Z         004aa7b8     mfc42d:MFC42D.DLL
 0004:000017bc       __imp_?Detach@CGdiObject@@QAEPAXXZ 004aa7bc     mfc42d:MFC42D.DLL
 0004:000017c0       __imp_?GetSafeHandle@CGdiObject@@QBEPAXXZ 004aa7c0     mfc42d:MFC42D.DLL
 0004:000017c4       __imp_??0CRect@@QAE@HHHH@Z 004aa7c4     mfc42d:MFC42D.DLL
 0004:000017c8       __imp_?InvalidateRect@CWnd@@QAEXPBUtagRECT@@H@Z 004aa7c8     mfc42d:MFC42D.DLL
 0004:000017cc       __imp_?PtInRect@CRect@@QBEHUtagPOINT@@@Z 004aa7cc     mfc42d:MFC42D.DLL
 0004:000017d0       __imp_?CreateCompatibleDC@CDC@@QAEHPAV1@@Z 004aa7d0     mfc42d:MFC42D.DLL
 0004:000017d4       __imp_??8CSize@@QBEHUtagSIZE@@@Z 004aa7d4     mfc42d:MFC42D.DLL
 0004:000017d8       __imp_??0CDC@@QAE@XZ       004aa7d8     mfc42d:MFC42D.DLL
 0004:000017dc       __imp_?Size@CRect@@QBE?AVCSize@@XZ 004aa7dc     mfc42d:MFC42D.DLL
 0004:000017e0       __imp_?SelectObject@CDC@@UAEPAVCFont@@PAV2@@Z 004aa7e0     mfc42d:MFC42D.DLL
 0004:000017e4       __imp_??0CString@@QAE@XZ   004aa7e4     mfc42d:MFC42D.DLL
 0004:000017e8       __imp_??1CDC@@UAE@XZ       004aa7e8     mfc42d:MFC42D.DLL
 0004:000017ec       __imp_?Width@CRect@@QBEHXZ 004aa7ec     mfc42d:MFC42D.DLL
 0004:000017f0       __imp_?GetSafeHdc@CDC@@QBEPAUHDC__@@XZ 004aa7f0     mfc42d:MFC42D.DLL
 0004:000017f4       __imp_?OnUpdateFrameMenu@CFrameWnd@@UAEXPAUHMENU__@@@Z 004aa7f4     mfc42d:MFC42D.DLL
 0004:000017f8       __imp_?Height@CRect@@QBEHXZ 004aa7f8     mfc42d:MFC42D.DLL
 0004:000017fc       __imp_?OnUpdateFrameTitle@CFrameWnd@@UAEXH@Z 004aa7fc     mfc42d:MFC42D.DLL
 0004:00001800       __imp_?SendMessageA@CWnd@@QAEJIIJ@Z 004aa800     mfc42d:MFC42D.DLL
 0004:00001804       __imp_?Create@CFrameWnd@@QAEHPBD0KABUtagRECT@@PAVCWnd@@0KPAUCCreateContext@@@Z 004aa804     mfc42d:MFC42D.DLL
 0004:00001808       __imp_?GetDlgCtrlID@CWnd@@QBEHXZ 004aa808     mfc42d:MFC42D.DLL
 0004:0000180c       __imp_?AfxGetModuleState@@YGPAVAFX_MODULE_STATE@@XZ 004aa80c     mfc42d:MFC42D.DLL
 0004:00001810       __imp_?AfxWinMain@@YGHPAUHINSTANCE__@@0PADH@Z 004aa810     mfc42d:MFC42D.DLL
 0004:00001814       \177MFC42D_NULL_THUNK_DATA 004aa814     mfc42d:MFC42D.DLL
 0004:000019a0       __imp_?AfxSocketInit@@YGHPAUWSAData@@@Z 004aa9a0     mfcn42d:MFCN42D.DLL
 0004:000019a4       \177MFCN42D_NULL_THUNK_DATA 004aa9a4     mfcn42d:MFCN42D.DLL
 0004:000019d0       __imp_??_Dostrstream@@QAEXXZ 004aa9d0     msvcirtd:MSVCIRTD.dll
 0004:000019d4       __imp_??0ostrstream@@QAE@XZ 004aa9d4     msvcirtd:MSVCIRTD.dll
 0004:000019d8       __imp_?precision@ios@@QAEHH@Z 004aa9d8     msvcirtd:MSVCIRTD.dll
 0004:000019dc       __imp_??6ostream@@QAEAAV0@PBD@Z 004aa9dc     msvcirtd:MSVCIRTD.dll
 0004:000019e0       __imp_??6ostream@@QAEAAV0@N@Z 004aa9e0     msvcirtd:MSVCIRTD.dll
 0004:000019e4       __imp_?freeze@strstreambuf@@QAEXH@Z 004aa9e4     msvcirtd:MSVCIRTD.dll
 0004:000019e8       __imp_?seekp@ostream@@QAEAAV1@J@Z 004aa9e8     msvcirtd:MSVCIRTD.dll
 0004:000019ec       __imp_??6ostream@@QAEAAV0@H@Z 004aa9ec     msvcirtd:MSVCIRTD.dll
 0004:000019f0       __imp_?rdbuf@ostrstream@@QBEPAVstrstreambuf@@XZ 004aa9f0     msvcirtd:MSVCIRTD.dll
 0004:000019f4       __imp_?str@strstreambuf@@QAEPADXZ 004aa9f4     msvcirtd:MSVCIRTD.dll
 0004:000019f8       __imp_??6ostream@@QAEAAV0@K@Z 004aa9f8     msvcirtd:MSVCIRTD.dll
 0004:000019fc       __imp_??6ostream@@QAEAAV0@D@Z 004aa9fc     msvcirtd:MSVCIRTD.dll
 0004:00001a00       \177MSVCIRTD_NULL_THUNK_DATA 004aaa00     msvcirtd:MSVCIRTD.dll
 0004:00001a34       __imp_??0Init@ios_base@std@@QAE@XZ 004aaa34     msvcprtd:MSVCP60D.dll
 0004:00001a38       __imp_??Y?$basic_string@DU?$char_traits@D@std@@V?$allocator@D@2@@std@@QAEAAV01@ABV01@@Z 004aaa38     msvcprtd:MSVCP60D.dll
 0004:00001a3c       __imp_??4?$basic_string@DU?$char_traits@D@std@@V?$allocator@D@2@@std@@QAEAAV01@PBD@Z 004aaa3c     msvcprtd:MSVCP60D.dll
 0004:00001a40       __imp_??0?$basic_string@DU?$char_traits@D@std@@V?$allocator@D@2@@std@@QAE@ABV01@@Z 004aaa40     msvcprtd:MSVCP60D.dll
 0004:00001a44       __imp_??4?$basic_string@DU?$char_traits@D@std@@V?$allocator@D@2@@std@@QAEAAV01@ABV01@@Z 004aaa44     msvcprtd:MSVCP60D.dll
 0004:00001a48       __imp_??1?$basic_string@DU?$char_traits@D@std@@V?$allocator@D@2@@std@@QAE@XZ 004aaa48     msvcprtd:MSVCP60D.dll
 0004:00001a4c       __imp_?c_str@?$basic_string@DU?$char_traits@D@std@@V?$allocator@D@2@@std@@QBEPBDXZ 004aaa4c     msvcprtd:MSVCP60D.dll
 0004:00001a50       __imp_??Hstd@@YA?AV?$basic_string@DU?$char_traits@D@std@@V?$allocator@D@2@@0@ABV10@0@Z 004aaa50     msvcprtd:MSVCP60D.dll
 0004:00001a54       __imp_?find_first_of@?$basic_string@DU?$char_traits@D@std@@V?$allocator@D@2@@std@@QBEIDI@Z 004aaa54     msvcprtd:MSVCP60D.dll
 0004:00001a58       __imp_??0?$basic_string@DU?$char_traits@D@std@@V?$allocator@D@2@@std@@QAE@ABV?$allocator@D@1@@Z 004aaa58     msvcprtd:MSVCP60D.dll
 0004:00001a5c       __imp_??5std@@YAAAV?$basic_istream@DU?$char_traits@D@std@@@0@AAV10@AAV?$basic_string@DU?$char_traits@D@std@@V?$allocator@D@2@@0@@Z 004aaa5c     msvcprtd:MSVCP60D.dll
 0004:00001a60       __imp_??7ios_base@std@@QBE_NXZ 004aaa60     msvcprtd:MSVCP60D.dll
 0004:00001a64       __imp_??0?$basic_ifstream@DU?$char_traits@D@std@@@std@@QAE@PBDH@Z 004aaa64     msvcprtd:MSVCP60D.dll
 0004:00001a68       __imp_?is_open@?$basic_ifstream@DU?$char_traits@D@std@@@std@@QBE_NXZ 004aaa68     msvcprtd:MSVCP60D.dll
 0004:00001a6c       __imp_?open@?$basic_ifstream@DU?$char_traits@D@std@@@std@@QAEXPBDH@Z 004aaa6c     msvcprtd:MSVCP60D.dll
 0004:00001a70       __imp_??_D?$basic_ifstream@DU?$char_traits@D@std@@@std@@QAEXXZ 004aaa70     msvcprtd:MSVCP60D.dll
 0004:00001a74       __imp_??8std@@YA_NABV?$basic_string@DU?$char_traits@D@std@@V?$allocator@D@2@@0@0@Z 004aaa74     msvcprtd:MSVCP60D.dll
 0004:00001a78       __imp_??8std@@YA_NABV?$basic_string@DU?$char_traits@D@std@@V?$allocator@D@2@@0@PBD@Z 004aaa78     msvcprtd:MSVCP60D.dll
 0004:00001a7c       __imp_??1_Winit@std@@QAE@XZ 004aaa7c     msvcprtd:MSVCP60D.dll
 0004:00001a80       __imp_?npos@?$basic_string@DU?$char_traits@D@std@@V?$allocator@D@2@@std@@2IB 004aaa80     msvcprtd:MSVCP60D.dll
 0004:00001a84       __imp_??A?$basic_string@DU?$char_traits@D@std@@V?$allocator@D@2@@std@@QBEABDI@Z 004aaa84     msvcprtd:MSVCP60D.dll
 0004:00001a88       __imp_?size@?$basic_string@DU?$char_traits@D@std@@V?$allocator@D@2@@std@@QBEIXZ 004aaa88     msvcprtd:MSVCP60D.dll
 0004:00001a8c       __imp_??A?$basic_string@DU?$char_traits@D@std@@V?$allocator@D@2@@std@@QAEAADI@Z 004aaa8c     msvcprtd:MSVCP60D.dll
 0004:00001a90       __imp_??0_Winit@std@@QAE@XZ 004aaa90     msvcprtd:MSVCP60D.dll
 0004:00001a94       __imp_??1Init@ios_base@std@@QAE@XZ 004aaa94     msvcprtd:MSVCP60D.dll
 0004:00001a98       __imp_??Hstd@@YA?AV?$basic_string@DU?$char_traits@D@std@@V?$allocator@D@2@@0@ABV10@PBD@Z 004aaa98     msvcprtd:MSVCP60D.dll
 0004:00001a9c       __imp_??0?$basic_string@DU?$char_traits@D@std@@V?$allocator@D@2@@std@@QAE@PBDABV?$allocator@D@1@@Z 004aaa9c     msvcprtd:MSVCP60D.dll
 0004:00001aa0       \177MSVCP60D_NULL_THUNK_DATA 004aaaa0     msvcprtd:MSVCP60D.dll
 0004:00001ae0       __imp__abs                 004aaae0     msvcrtd:MSVCRTD.dll
 0004:00001ae4       __imp___endthread          004aaae4     msvcrtd:MSVCRTD.dll
 0004:00001ae8       __imp___CxxThrowException@8 004aaae8     msvcrtd:MSVCRTD.dll
 0004:00001aec       __imp___beginthread        004aaaec     msvcrtd:MSVCRTD.dll
 0004:00001af0       __imp__fread               004aaaf0     msvcrtd:MSVCRTD.dll
 0004:00001af4       __imp__atoi                004aaaf4     msvcrtd:MSVCRTD.dll
 0004:00001af8       __imp__tolower             004aaaf8     msvcrtd:MSVCRTD.dll
 0004:00001afc       __imp___purecall           004aaafc     msvcrtd:MSVCRTD.dll
 0004:00001b00       __imp__rand                004aab00     msvcrtd:MSVCRTD.dll
 0004:00001b04       __imp__strlen              004aab04     msvcrtd:MSVCRTD.dll
 0004:00001b08       __imp___strnicmp           004aab08     msvcrtd:MSVCRTD.dll
 0004:00001b0c       __imp__sprintf             004aab0c     msvcrtd:MSVCRTD.dll
 0004:00001b10       __imp__memset              004aab10     msvcrtd:MSVCRTD.dll
 0004:00001b14       __imp__strncpy             004aab14     msvcrtd:MSVCRTD.dll
 0004:00001b18       __imp___assert             004aab18     msvcrtd:MSVCRTD.dll
 0004:00001b1c       __imp__fopen               004aab1c     msvcrtd:MSVCRTD.dll
 0004:00001b20       __imp__time                004aab20     msvcrtd:MSVCRTD.dll
 0004:00001b24       __imp__gmtime              004aab24     msvcrtd:MSVCRTD.dll
 0004:00001b28       __imp__asctime             004aab28     msvcrtd:MSVCRTD.dll
 0004:00001b2c       __imp__fprintf             004aab2c     msvcrtd:MSVCRTD.dll
 0004:00001b30       __imp__fclose              004aab30     msvcrtd:MSVCRTD.dll
 0004:00001b34       __imp__memcpy              004aab34     msvcrtd:MSVCRTD.dll
 0004:00001b38       __imp___ftol               004aab38     msvcrtd:MSVCRTD.dll
 0004:00001b3c       __imp__srand               004aab3c     msvcrtd:MSVCRTD.dll
 0004:00001b40       __imp__modf                004aab40     msvcrtd:MSVCRTD.dll
 0004:00001b44       __imp__pow                 004aab44     msvcrtd:MSVCRTD.dll
 0004:00001b48       __imp__atof                004aab48     msvcrtd:MSVCRTD.dll
 0004:00001b4c       __imp__strcpy              004aab4c     msvcrtd:MSVCRTD.dll
 0004:00001b50       __imp___adjust_fdiv        004aab50     msvcrtd:MSVCRTD.dll
 0004:00001b54       __imp____setusermatherr    004aab54     msvcrtd:MSVCRTD.dll
 0004:00001b58       __imp____set_app_type      004aab58     msvcrtd:MSVCRTD.dll
 0004:00001b5c       __imp___setmbcp            004aab5c     msvcrtd:MSVCRTD.dll
 0004:00001b60       __imp___itoa               004aab60     msvcrtd:MSVCRTD.dll
 0004:00001b60       __imp__itoa                004aab60     msvcrtd:MSVCRTD.dll
 0004:00001b64       __imp___controlfp          004aab64     msvcrtd:MSVCRTD.dll
 0004:00001b68       __imp____p__fmode          004aab68     msvcrtd:MSVCRTD.dll
 0004:00001b6c       __imp____p__commode        004aab6c     msvcrtd:MSVCRTD.dll
 0004:00001b70       __imp___chkesp             004aab70     msvcrtd:MSVCRTD.dll
 0004:00001b74       __imp____CxxFrameHandler   004aab74     msvcrtd:MSVCRTD.dll
 0004:00001b78       __imp__exit                004aab78     msvcrtd:MSVCRTD.dll
 0004:00001b7c       __imp____dllonexit         004aab7c     msvcrtd:MSVCRTD.dll
 0004:00001b80       __imp___XcptFilter         004aab80     msvcrtd:MSVCRTD.dll
 0004:00001b84       __imp___initterm           004aab84     msvcrtd:MSVCRTD.dll
 0004:00001b88       __imp__strtok              004aab88     msvcrtd:MSVCRTD.dll
 0004:00001b8c       __imp____getmainargs       004aab8c     msvcrtd:MSVCRTD.dll
 0004:00001b90       __imp___acmdln             004aab90     msvcrtd:MSVCRTD.dll
 0004:00001b94       __imp_??1type_info@@UAE@XZ 004aab94     msvcrtd:MSVCRTD.dll
 0004:00001b98       __imp___exit               004aab98     msvcrtd:MSVCRTD.dll
 0004:00001b9c       __imp_?terminate@@YAXXZ    004aab9c     msvcrtd:MSVCRTD.dll
 0004:00001ba0       __imp___except_handler3    004aaba0     msvcrtd:MSVCRTD.dll
 0004:00001ba4       __imp___onexit             004aaba4     msvcrtd:MSVCRTD.dll
 0004:00001ba8       \177MSVCRTD_NULL_THUNK_DATA 004aaba8     msvcrtd:MSVCRTD.dll
 0004:00001bfc       __imp__ShellExecuteExA@4   004aabfc     shell32:SHELL32.dll
 0004:00001c00       \177SHELL32_NULL_THUNK_DATA 004aac00     shell32:SHELL32.dll
 0004:00001c2c       __imp__SSL_get_error       004aac2c     ssleay32:SSLEAY32.dll
 0004:00001c30       __imp__SSL_CTX_new         004aac30     ssleay32:SSLEAY32.dll
 0004:00001c34       __imp__SSL_load_error_strings 004aac34     ssleay32:SSLEAY32.dll
 0004:00001c38       __imp__SSL_CTX_free        004aac38     ssleay32:SSLEAY32.dll
 0004:00001c3c       __imp__SSL_shutdown        004aac3c     ssleay32:SSLEAY32.dll
 0004:00001c40       __imp__SSL_free            004aac40     ssleay32:SSLEAY32.dll
 0004:00001c44       __imp__SSL_write           004aac44     ssleay32:SSLEAY32.dll
 0004:00001c48       __imp__SSL_read            004aac48     ssleay32:SSLEAY32.dll
 0004:00001c4c       __imp__SSL_new             004aac4c     ssleay32:SSLEAY32.dll
 0004:00001c50       __imp__SSLv2_client_method 004aac50     ssleay32:SSLEAY32.dll
 0004:00001c54       __imp__SSL_set_fd          004aac54     ssleay32:SSLEAY32.dll
 0004:00001c58       __imp__SSL_connect         004aac58     ssleay32:SSLEAY32.dll
 0004:00001c5c       __imp__SSL_library_init    004aac5c     ssleay32:SSLEAY32.dll
 0004:00001c60       \177SSLEAY32_NULL_THUNK_DATA 004aac60     ssleay32:SSLEAY32.dll
 0004:00001c94       __imp__CloseClipboard@0    004aac94     user32:USER32.dll
 0004:00001c98       __imp__MessageBeep@4       004aac98     user32:USER32.dll
 0004:00001c9c       __imp__SetClipboardData@8  004aac9c     user32:USER32.dll
 0004:00001ca0       __imp__GetSysColor@4       004aaca0     user32:USER32.dll
 0004:00001ca4       __imp__GetSystemMetrics@4  004aaca4     user32:USER32.dll
 0004:00001ca8       __imp__GetDlgCtrlID@4      004aaca8     user32:USER32.dll
 0004:00001cac       __imp__UnionRect@12        004aacac     user32:USER32.dll
 0004:00001cb0       __imp__PostMessageA@16     004aacb0     user32:USER32.dll
 0004:00001cb4       __imp__SetTimer@16         004aacb4     user32:USER32.dll
 0004:00001cb8       __imp__KillTimer@8         004aacb8     user32:USER32.dll
 0004:00001cbc       __imp__IsWindow@4          004aacbc     user32:USER32.dll
 0004:00001cc0       __imp__LoadImageA@24       004aacc0     user32:USER32.dll
 0004:00001cc4       __imp__CopyImage@20        004aacc4     user32:USER32.dll
 0004:00001cc8       __imp__EmptyClipboard@0    004aacc8     user32:USER32.dll
 0004:00001ccc       __imp__EnableWindow@8      004aaccc     user32:USER32.dll
 0004:00001cd0       __imp__SetFocus@4          004aacd0     user32:USER32.dll
 0004:00001cd4       __imp__EnumWindows@8       004aacd4     user32:USER32.dll
 0004:00001cd8       __imp__GetCursorPos@4      004aacd8     user32:USER32.dll
 0004:00001cdc       __imp__ReleaseCapture@0    004aacdc     user32:USER32.dll
 0004:00001ce0       __imp__SetActiveWindow@4   004aace0     user32:USER32.dll
 0004:00001ce4       \177USER32_NULL_THUNK_DATA 004aace4     user32:USER32.dll
 0004:00001d20       __imp__timeGetTime@0       004aad20     winmm:WINMM.dll
 0004:00001d24       __imp__PlaySoundA@12       004aad24     winmm:WINMM.dll
 0004:00001d28       \177WINMM_NULL_THUNK_DATA  004aad28     winmm:WINMM.dll
 0004:00001d54       __imp__WSAGetLastError@0   004aad54     wsock32:WSOCK32.dll
 0004:00001d58       __imp__gethostbyname@4     004aad58     wsock32:WSOCK32.dll
 0004:00001d5c       __imp__gethostbyaddr@12    004aad5c     wsock32:WSOCK32.dll
 0004:00001d60       __imp__ntohs@4             004aad60     wsock32:WSOCK32.dll
 0004:00001d64       __imp__htons@4             004aad64     wsock32:WSOCK32.dll
 0004:00001d68       __imp__send@16             004aad68     wsock32:WSOCK32.dll
 0004:00001d6c       __imp__inet_addr@4         004aad6c     wsock32:WSOCK32.dll
 0004:00001d70       __imp__ntohl@4             004aad70     wsock32:WSOCK32.dll
 0004:00001d74       __imp__htonl@4             004aad74     wsock32:WSOCK32.dll
 0004:00001d78       __imp__inet_ntoa@4         004aad78     wsock32:WSOCK32.dll
 0004:00001d7c       __imp__recv@16             004aad7c     wsock32:WSOCK32.dll
 0004:00001d80       __imp__closesocket@4       004aad80     wsock32:WSOCK32.dll
 0004:00001d84       __imp__connect@12          004aad84     wsock32:WSOCK32.dll
 0004:00001d88       __imp__socket@12           004aad88     wsock32:WSOCK32.dll
 0004:00001d8c       \177WSOCK32_NULL_THUNK_DATA 004aad8c     wsock32:WSOCK32.dll
 0004:00001dc0       __imp_??0BitmapImage@Colosseum@@QAE@XZ 004aadc0     jpglib:jpglib.dll
 0004:00001dc4       __imp_??ABitmapImage@Colosseum@@QAEAAUPixel@01@I@Z 004aadc4     jpglib:jpglib.dll
 0004:00001dc8       __imp_?getHeight@BitmapImage@Colosseum@@QBEIXZ 004aadc8     jpglib:jpglib.dll
 0004:00001dcc       __imp_?getWidth@BitmapImage@Colosseum@@QBEIXZ 004aadcc     jpglib:jpglib.dll
 0004:00001dd0       __imp_?ReadImage@Colosseum@@YA?AW4ImageType@1@ABV?$basic_string@DU?$char_traits@D@std@@V?$allocator@D@2@@std@@AAVBitmapImage@1@P6AXAAVBitmapImageCoder@1@PAXIIIAA_N@Z3@Z 004aadd0     jpglib:jpglib.dll
 0004:00001dd4       __imp_??1BitmapImage@Colosseum@@UAE@XZ 004aadd4     jpglib:jpglib.dll
 0004:00001dd8       \177jpglib_NULL_THUNK_DATA 004aadd8     jpglib:jpglib.dll

 entry point at        0001:000747b0

