-----BEGIN RSA PRIVATE KEY-----
MIICXgIBAAKBgQDYeL+KSfJuFWhg7LhF/WZ8bioQh0Q73Z9jnNRiD6Dzz4rny/49
/BBmNELD57AUumvQFS9Iq6fsLN2wIdL9xuT8tgVKUZ81ZHmkHqXNuvkrTPD5YXni
Rb70BiOzWHv4Vinz+YDHCDVQ48TMiTf0RDhUte5MBssJsyMQt+66ACPreQIDAQAB
AoGBAI//4wrPHiH0w7aWQg7s/lwPvJO6J73bM8hD71Q8KUmG6lQ/8ySwpQgYA8Hm
Qc/IIygMr6Ob7NzDC8W6+mwu/uuS0dDdz4zCccBl+qdmyiozUsfzTl2XTe6GnQrr
N8jJaaC9hCR4TGfbdlylNoqwrZUwGySzlXM8bw+YrgIZqtgBAkEA/pOMdCB1eKZA
UrwVLIRH/zKQdqybeiW+PaCPMpu+bzUM7NyCaYcGGrH4Ov4clpEMou7/KYQCZPYW
yh2Pd5KTwQJBANmuph7iZVaW1/K+rpzGexOyvYibVb9jJw2GEXkgWXaq/tMdCKC+
H1UrNarecyEM4aGj7Pf+nulxp/q/7s3sZbkCQQDU5GMyweo7CR0Fk1BJuB3VZl21
QMeMsH+VXe4irmfk7AJxGj7dLROHw4kJHHSf3ZEpuKAeAc1WzQ1l3K6bmjKBAkB3
t6ie9a38CCut0hbgG/yWYcgBOETZZCOXOXOkpRjuva411xLmrIk44vG6DmtM8vOo
XSo3Xa5x/tL+gc5JLEjpAkEA6zlkeg5ZsCGhV0wDlA5XoNIh/lG0WCdJqcg00Del
5m7jDws7REFmnv819eoMa+XqSN0fRXgsUbvNxSBTToN6cA==
-----END RSA PRIVATE KEY-----
issuer :/C=CR/ST=Some-State/O=PokerSpot Inc/Email=support@pokerspot.com
subject:/C=CR/ST=Some-State/O=PokerSpot International/CN=game1.pokerspot.com/Email=support@pokerspot.com
serial :01

Certificate:
    Data:
        Version: 1 (0x0)
        Serial Number: 1 (0x1)
        Signature Algorithm: md5WithRSAEncryption
        Issuer: C=CR, ST=Some-State, O=PokerSpot Inc/Email=support@pokerspot.com
        Validity
            Not Before: Feb 23 21:46:31 2000 GMT
            Not After : Feb 22 21:46:31 2001 GMT
        Subject: C=CR, ST=Some-State, O=PokerSpot International, CN=game1.pokerspot.com/Email=support@pokerspot.com
        Subject Public Key Info:
            Public Key Algorithm: rsaEncryption
            RSA Public Key: (1024 bit)
                Modulus (1024 bit):
                    00:d8:78:bf:8a:49:f2:6e:15:68:60:ec:b8:45:fd:
                    66:7c:6e:2a:10:87:44:3b:dd:9f:63:9c:d4:62:0f:
                    a0:f3:cf:8a:e7:cb:fe:3d:fc:10:66:34:42:c3:e7:
                    b0:14:ba:6b:d0:15:2f:48:ab:a7:ec:2c:dd:b0:21:
                    d2:fd:c6:e4:fc:b6:05:4a:51:9f:35:64:79:a4:1e:
                    a5:cd:ba:f9:2b:4c:f0:f9:61:79:e2:45:be:f4:06:
                    23:b3:58:7b:f8:56:29:f3:f9:80:c7:08:35:50:e3:
                    c4:cc:89:37:f4:44:38:54:b5:ee:4c:06:cb:09:b3:
                    23:10:b7:ee:ba:00:23:eb:79
                Exponent: 65537 (0x10001)
    Signature Algorithm: md5WithRSAEncryption
        c6:80:82:c4:f1:aa:1c:37:03:5d:cb:71:05:97:8b:25:e2:b6:
        94:af:45:ef:d9:37:41:a2:81:9d:3d:c4:77:f1:6f:7f:96:6c:
        af:c3:40:03:5e:87:67:d1:c0:d4:bc:52:f6:3d:64:23:14:98:
        73:71:d4:b7:fb:4a:2e:d7:bf:aa:59:0c:d0:99:bb:2d:64:81:
        51:00:f2:55:0b:62:e0:bd:89:48:8f:72:af:c1:38:be:bd:43:
        7d:be:e6:c6:c7:88:5f:02:d1:a6:4b:26:e4:24:ba:40:90:3b:
        5f:0e:c1:98:94:ab:3e:98:64:63:39:ca:8c:da:2c:82:36:ac:
        86:ee

-----BEGIN CERTIFICATE-----
MIICWDCCAcECAQEwDQYJKoZIhvcNAQEEBQAwYDELMAkGA1UEBhMCQ1IxEzARBgNV
BAgTClNvbWUtU3RhdGUxFjAUBgNVBAoTDVBva2VyU3BvdCBJbmMxJDAiBgkqhkiG
9w0BCQEWFXN1cHBvcnRAcG9rZXJzcG90LmNvbTAeFw0wMDAyMjMyMTQ2MzFaFw0w
MTAyMjIyMTQ2MzFaMIGIMQswCQYDVQQGEwJDUjETMBEGA1UECBMKU29tZS1TdGF0
ZTEgMB4GA1UEChMXUG9rZXJTcG90IEludGVybmF0aW9uYWwxHDAaBgNVBAMTE2dh
bWUxLnBva2Vyc3BvdC5jb20xJDAiBgkqhkiG9w0BCQEWFXN1cHBvcnRAcG9rZXJz
cG90LmNvbTCBnzANBgkqhkiG9w0BAQEFAAOBjQAwgYkCgYEA2Hi/iknybhVoYOy4
Rf1mfG4qEIdEO92fY5zUYg+g88+K58v+PfwQZjRCw+ewFLpr0BUvSKun7CzdsCHS
/cbk/LYFSlGfNWR5pB6lzbr5K0zw+WF54kW+9AYjs1h7+FYp8/mAxwg1UOPEzIk3
9EQ4VLXuTAbLCbMjELfuugAj63kCAwEAATANBgkqhkiG9w0BAQQFAAOBgQDGgILE
8aocNwNdy3EFl4sl4raUr0Xv2TdBooGdPcR38W9/lmyvw0ADXodn0cDUvFL2PWQj
FJhzcdS3+0ou17+qWQzQmbstZIFRAPJVC2LgvYlIj3KvwTi+vUN9vubGx4hfAtGm
SybkJLpAkDtfDsGYlKs+mGRjOcqM2iyCNqyG7g==
-----END CERTIFICATE-----

